(lp0
S'urn:cts:cwkb:1000'
p1
aS'urn:cts:cwkb:1001'
p2
aS'urn:cts:greekLit:tlg2045'
p3
aS'urn:cts:cwkb:1003'
p4
aS'urn:cts:cwkb:1004'
p5
aS'urn:cts:cwkb:1005'
p6
aS'urn:cts:cwkb:1006'
p7
aS'urn:cts:greekLit:tlg0648'
p8
aS'urn:cts:greekLit:tlg0024'
p9
aS'urn:cts:cwkb:1010'
p10
aS'urn:cts:cwkb:1011'
p11
aS'urn:cts:cwkb:1012'
p12
aS'urn:cts:cwkb:1013'
p13
aS'urn:cts:cwkb:1014'
p14
aS'urn:cts:cwkb:1015'
p15
aS'urn:cts:cwkb:1016'
p16
aS'urn:cts:cwkb:1017'
p17
aS'urn:cts:cwkb:1018'
p18
aS'urn:cts:cwkb:1019'
p19
aS'urn:cts:cwkb:1020'
p20
aS'urn:cts:cwkb:1021'
p21
aS'urn:cts:cwkb:1022'
p22
aS'urn:cts:cwkb:1023'
p23
aS'urn:cts:cwkb:1024'
p24
aS'urn:cts:cwkb:1025'
p25
aS'urn:cts:cwkb:1026'
p26
aS'urn:cts:cwkb:1027'
p27
aS'urn:cts:greekLit:tlg0655'
p28
aS'urn:cts:cwkb:1029'
p29
aS'urn:cts:cwkb:1030'
p30
aS'urn:cts:greekLit:tlg0525'
p31
aS'urn:cts:cwkb:1032'
p32
aS'urn:cts:cwkb:1033'
p33
aS'urn:cts:cwkb:1034'
p34
aS'urn:cts:cwkb:1035'
p35
aS'urn:cts:cwkb:1036'
p36
aS'urn:cts:cwkb:1037'
p37
aS'urn:cts:cwkb:1039'
p38
aS'urn:cts:cwkb:1040'
p39
aS'urn:cts:cwkb:1041'
p40
aS'urn:cts:cwkb:1042'
p41
aS'urn:cts:cwkb:1043'
p42
aS'urn:cts:cwkb:1044'
p43
aS'urn:cts:cwkb:1045'
p44
aS'urn:cts:cwkb:1046'
p45
aS'urn:cts:greekLit:tlg0033'
p46
aS'urn:cts:cwkb:1048'
p47
aS'urn:cts:cwkb:1049'
p48
aS'urn:cts:greekLit:tlg0059'
p49
aS'urn:cts:cwkb:1051'
p50
aS'urn:cts:greekLit:tlg0007'
p51
aS'urn:cts:cwkb:1053'
p52
aS'urn:cts:greekLit:tlg0543'
p53
aS'urn:cts:cwkb:1055'
p54
aS'urn:cts:cwkb:1056'
p55
aS'urn:cts:cwkb:1057'
p56
aS'urn:cts:cwkb:1058'
p57
aS'urn:cts:cwkb:1059'
p58
aS'urn:cts:cwkb:1060'
p59
aS'urn:cts:cwkb:1061'
p60
aS'urn:cts:cwkb:1062'
p61
aS'urn:cts:cwkb:1063'
p62
aS'urn:cts:cwkb:1064'
p63
aS'urn:cts:cwkb:1065'
p64
aS'urn:cts:cwkb:1066'
p65
aS'urn:cts:cwkb:1067'
p66
aS'urn:cts:greekLit:tlg2046'
p67
aS'urn:cts:cwkb:1069'
p68
aS'urn:cts:cwkb:1070'
p69
aS'urn:cts:cwkb:1071'
p70
aS'urn:cts:cwkb:1072'
p71
aS'urn:cts:cwkb:1073'
p72
aS'urn:cts:cwkb:1074'
p73
aS'urn:cts:cwkb:1075'
p74
aS'urn:cts:cwkb:1076'
p75
aS'urn:cts:cwkb:1077'
p76
aS'urn:cts:cwkb:1078'
p77
aS'urn:cts:cwkb:1079'
p78
aS'urn:cts:cwkb:1080'
p79
aS'urn:cts:cwkb:1081'
p80
aS'urn:cts:cwkb:1082'
p81
aS'urn:cts:cwkb:1083'
p82
aS'urn:cts:cwkb:1084'
p83
aS'urn:cts:cwkb:1085'
p84
aS'urn:cts:cwkb:1086'
p85
aS'urn:cts:cwkb:1088'
p86
aS'urn:cts:cwkb:1089'
p87
aS'urn:cts:greekLit:tlg0011'
p88
aS'urn:cts:cwkb:1091'
p89
aS'urn:cts:cwkb:1092'
p90
aS'urn:cts:greekLit:tlg0099'
p91
aS'urn:cts:cwkb:1094'
p92
aS'urn:cts:cwkb:1095'
p93
aS'urn:cts:cwkb:1096'
p94
aS'urn:cts:cwkb:1097'
p95
aS'urn:cts:cwkb:1098'
p96
aS'urn:cts:cwkb:1099'
p97
aS'urn:cts:cwkb:1100'
p98
aS'urn:cts:cwkb:1101'
p99
aS'urn:cts:greekLit:tlg0005'
p100
aS'urn:cts:cwkb:1103'
p101
aS'urn:cts:cwkb:1104'
p102
aS'urn:cts:cwkb:1105'
p103
aS'urn:cts:cwkb:1106'
p104
aS'urn:cts:cwkb:1107'
p105
aS'urn:cts:cwkb:1108'
p106
aS'urn:cts:cwkb:1110'
p107
aS'urn:cts:cwkb:1111'
p108
aS'urn:cts:cwkb:1112'
p109
aS'urn:cts:greekLit:tlg0093'
p110
aS'urn:cts:cwkb:1114'
p111
aS'urn:cts:greekLit:tlg0003'
p112
aS'urn:cts:cwkb:1116'
p113
aS'urn:cts:cwkb:1117'
p114
aS'urn:cts:cwkb:1118'
p115
aS'urn:cts:cwkb:1119'
p116
aS'urn:cts:cwkb:1120'
p117
aS'urn:cts:cwkb:1121'
p118
aS'urn:cts:cwkb:1122'
p119
aS'urn:cts:cwkb:1123'
p120
aS'urn:cts:cwkb:1124'
p121
aS'urn:cts:cwkb:1125'
p122
aS'urn:cts:cwkb:1126'
p123
aS'urn:cts:cwkb:1127'
p124
aS'urn:cts:cwkb:1128'
p125
aS'urn:cts:greekLit:tlg0032'
p126
aS'urn:cts:cwkb:1130'
p127
aS'urn:cts:cwkb:1131'
p128
aS'urn:cts:cwkb:1132'
p129
aS'urn:cts:cwkb:1133'
p130
aS'urn:cts:cwkb:1134'
p131
aS'urn:cts:cwkb:1136'
p132
aS'urn:cts:cwkb:1137'
p133
aS'urn:cts:greekLit:tlg0532'
p134
aS'urn:cts:cwkb:1139'
p135
aS'urn:cts:cwkb:1143'
p136
aS'urn:cts:cwkb:1144'
p137
aS'urn:cts:cwkb:1145'
p138
aS'urn:cts:cwkb:1146'
p139
aS'urn:cts:cwkb:1147'
p140
aS'urn:cts:cwkb:1148'
p141
aS'urn:cts:cwkb:1149'
p142
aS'urn:cts:cwkb:1150'
p143
aS'urn:cts:cwkb:1151'
p144
aS'urn:cts:cwkb:1152'
p145
aS'urn:cts:cwkb:1153'
p146
aS'urn:cts:cwkb:1155'
p147
aS'urn:cts:cwkb:1156'
p148
aS'urn:cts:cwkb:1157'
p149
aS'urn:cts:cwkb:1158'
p150
aS'urn:cts:cwkb:1160'
p151
aS'urn:cts:cwkb:1161'
p152
aS'urn:cts:cwkb:1162'
p153
aS'urn:cts:cwkb:1163'
p154
aS'urn:cts:cwkb:1165'
p155
aS'urn:cts:cwkb:1166'
p156
aS'urn:cts:cwkb:1167'
p157
aS'urn:cts:cwkb:1168'
p158
aS'urn:cts:cwkb:1169'
p159
aS'urn:cts:cwkb:1170'
p160
aS'urn:cts:cwkb:1171'
p161
aS'urn:cts:greekLit:tlg0008'
p162
aS'urn:cts:cwkb:1173'
p163
aS'urn:cts:cwkb:1174'
p164
aS'urn:cts:cwkb:1175'
p165
aS'urn:cts:cwkb:1176'
p166
aS'urn:cts:cwkb:1177'
p167
aS'urn:cts:cwkb:1178'
p168
aS'urn:cts:greekLit:tlg0023'
p169
aS'urn:cts:cwkb:1180'
p170
aS'urn:cts:cwkb:1181'
p171
aS'urn:cts:cwkb:1182'
p172
aS'urn:cts:cwkb:1183'
p173
aS'urn:cts:cwkb:1184'
p174
aS'urn:cts:cwkb:1185'
p175
aS'urn:cts:cwkb:1186'
p176
aS'urn:cts:cwkb:1313'
p177
aS'urn:cts:cwkb:1314'
p178
aS'urn:cts:cwkb:1315'
p179
aS'urn:cts:cwkb:1316'
p180
aS'urn:cts:cwkb:1317'
p181
aS'urn:cts:cwkb:1318'
p182
aS'urn:cts:cwkb:1319'
p183
aS'urn:cts:cwkb:1320'
p184
aS'urn:cts:cwkb:1321'
p185
aS'urn:cts:cwkb:1322'
p186
aS'urn:cts:cwkb:1323'
p187
aS'urn:cts:cwkb:1324'
p188
aS'urn:cts:cwkb:1325'
p189
aS'urn:cts:cwkb:1326'
p190
aS'urn:cts:cwkb:1327'
p191
aS'urn:cts:cwkb:1328'
p192
aS'urn:cts:cwkb:1329'
p193
aS'urn:cts:cwkb:1330'
p194
aS'urn:cts:cwkb:1331'
p195
aS'urn:cts:cwkb:1333'
p196
aS'urn:cts:cwkb:1334'
p197
aS'urn:cts:cwkb:1335'
p198
aS'urn:cts:cwkb:1336'
p199
aS'urn:cts:cwkb:1337'
p200
aS'urn:cts:cwkb:1338'
p201
aS'urn:cts:cwkb:1339'
p202
aS'urn:cts:cwkb:1340'
p203
aS'urn:cts:cwkb:1341'
p204
aS'urn:cts:cwkb:1342'
p205
aS'urn:cts:cwkb:1343'
p206
aS'urn:cts:cwkb:1344'
p207
aS'urn:cts:cwkb:1345'
p208
aS'urn:cts:cwkb:1346'
p209
aS'urn:cts:cwkb:1348'
p210
aS'urn:cts:cwkb:1351'
p211
aS'urn:cts:cwkb:1353'
p212
aS'urn:cts:cwkb:1355'
p213
aS'urn:cts:cwkb:1357'
p214
aS'urn:cts:cwkb:1358'
p215
aS'urn:cts:cwkb:1359'
p216
aS'urn:cts:cwkb:1360'
p217
aS'urn:cts:cwkb:1362'
p218
aS'urn:cts:cwkb:1363'
p219
aS'urn:cts:cwkb:1364'
p220
aS'urn:cts:cwkb:1365'
p221
aS'urn:cts:cwkb:1366'
p222
aS'urn:cts:cwkb:1367'
p223
aS'urn:cts:cwkb:1368'
p224
aS'urn:cts:cwkb:1369'
p225
aS'urn:cts:cwkb:1370'
p226
aS'urn:cts:cwkb:1371'
p227
aS'urn:cts:cwkb:1372'
p228
aS'urn:cts:greekLit:tlg0094'
p229
aS'urn:cts:cwkb:1377'
p230
aS'urn:cts:cwkb:1378'
p231
aS'urn:cts:cwkb:1379'
p232
aS'urn:cts:cwkb:1380'
p233
aS'urn:cts:cwkb:1381'
p234
aS'urn:cts:cwkb:1382'
p235
aS'urn:cts:cwkb:1383'
p236
aS'urn:cts:cwkb:1384'
p237
aS'urn:cts:cwkb:1385'
p238
aS'urn:cts:cwkb:1386'
p239
aS'urn:cts:cwkb:1387'
p240
aS'urn:cts:cwkb:1388'
p241
aS'urn:cts:cwkb:1389'
p242
aS'urn:cts:cwkb:1390'
p243
aS'urn:cts:cwkb:1391'
p244
aS'urn:cts:cwkb:1393'
p245
aS'urn:cts:greekLit:tlg0613'
p246
aS'urn:cts:cwkb:1395'
p247
aS'urn:cts:greekLit:tlg0652'
p248
aS'urn:cts:cwkb:1397'
p249
aS'urn:cts:cwkb:1398'
p250
aS'urn:cts:cwkb:1399'
p251
aS'urn:cts:cwkb:1400'
p252
aS'urn:cts:cwkb:1401'
p253
aS'urn:cts:cwkb:1402'
p254
aS'urn:cts:cwkb:1403'
p255
aS'urn:cts:cwkb:1404'
p256
aS'urn:cts:cwkb:1405'
p257
aS'urn:cts:cwkb:1406'
p258
aS'urn:cts:cwkb:1407'
p259
aS'urn:cts:cwkb:1408'
p260
aS'urn:cts:cwkb:1409'
p261
aS'urn:cts:cwkb:1410'
p262
aS'urn:cts:cwkb:1412'
p263
aS'urn:cts:cwkb:1413'
p264
aS'urn:cts:cwkb:1414'
p265
aS'urn:cts:cwkb:1415'
p266
aS'urn:cts:cwkb:1416'
p267
aS'urn:cts:cwkb:1417'
p268
aS'urn:cts:cwkb:1418'
p269
aS'urn:cts:cwkb:1419'
p270
aS'urn:cts:cwkb:1420'
p271
aS'urn:cts:cwkb:1421'
p272
aS'urn:cts:cwkb:1422'
p273
aS'urn:cts:cwkb:1423'
p274
aS'urn:cts:cwkb:1425'
p275
aS'urn:cts:cwkb:1426'
p276
aS'urn:cts:cwkb:1427'
p277
aS'urn:cts:cwkb:1428'
p278
aS'urn:cts:greekLit:tlg4029'
p279
aS'urn:cts:cwkb:1430'
p280
aS'urn:cts:cwkb:1431'
p281
aS'urn:cts:cwkb:1432'
p282
aS'urn:cts:cwkb:1433'
p283
aS'urn:cts:cwkb:1441'
p284
aS'urn:cts:cwkb:1442'
p285
aS'urn:cts:cwkb:1443'
p286
aS'urn:cts:cwkb:1444'
p287
aS'urn:cts:greekLit:tlg0284'
p288
aS'urn:cts:cwkb:2384'
p289
aS'urn:cts:cwkb:2385'
p290
aS'urn:cts:cwkb:2386'
p291
aS'urn:cts:cwkb:2387'
p292
aS'urn:cts:cwkb:2388'
p293
aS'urn:cts:cwkb:2389'
p294
aS'urn:cts:cwkb:2390'
p295
aS'urn:cts:cwkb:2391'
p296
aS'urn:cts:cwkb:2392'
p297
aS'urn:cts:cwkb:2393'
p298
aS'urn:cts:cwkb:2394'
p299
aS'urn:cts:cwkb:2395'
p300
aS'urn:cts:cwkb:2396'
p301
aS'urn:cts:cwkb:2398'
p302
aS'urn:cts:cwkb:2399'
p303
aS'urn:cts:cwkb:2400'
p304
aS'urn:cts:greekLit:tlg2934'
p305
aS'urn:cts:cwkb:2402'
p306
aS'urn:cts:cwkb:2403'
p307
aS'urn:cts:cwkb:2404'
p308
aS'urn:cts:cwkb:2405'
p309
aS'urn:cts:cwkb:2406'
p310
aS'urn:cts:cwkb:2407'
p311
aS'urn:cts:cwkb:2408'
p312
aS'urn:cts:cwkb:2409'
p313
aS'urn:cts:cwkb:2410'
p314
aS'urn:cts:cwkb:2411'
p315
aS'urn:cts:cwkb:2412'
p316
aS'urn:cts:cwkb:2413'
p317
aS'urn:cts:cwkb:2414'
p318
aS'urn:cts:cwkb:2415'
p319
aS'urn:cts:cwkb:2416'
p320
aS'urn:cts:cwkb:2418'
p321
aS'urn:cts:cwkb:2419'
p322
aS'urn:cts:cwkb:2420'
p323
aS'urn:cts:cwkb:2421'
p324
aS'urn:cts:cwkb:2422'
p325
aS'urn:cts:cwkb:2423'
p326
aS'urn:cts:cwkb:2424'
p327
aS'urn:cts:cwkb:2425'
p328
aS'urn:cts:cwkb:2427'
p329
aS'urn:cts:cwkb:2428'
p330
aS'urn:cts:cwkb:2429'
p331
aS'urn:cts:greekLit:tlg0060'
p332
aS'urn:cts:cwkb:2432'
p333
aS'urn:cts:cwkb:2433'
p334
aS'urn:cts:cwkb:2434'
p335
aS'urn:cts:cwkb:2435'
p336
aS'urn:cts:cwkb:2436'
p337
aS'urn:cts:cwkb:2437'
p338
aS'urn:cts:cwkb:2438'
p339
aS'urn:cts:cwkb:2439'
p340
aS'urn:cts:cwkb:2440'
p341
aS'urn:cts:cwkb:2441'
p342
aS'urn:cts:cwkb:2442'
p343
aS'urn:cts:cwkb:2443'
p344
aS'urn:cts:cwkb:2444'
p345
aS'urn:cts:cwkb:2445'
p346
aS'urn:cts:cwkb:2446'
p347
aS'urn:cts:cwkb:2447'
p348
aS'urn:cts:cwkb:2449'
p349
aS'urn:cts:cwkb:2450'
p350
aS'urn:cts:cwkb:2452'
p351
aS'urn:cts:cwkb:2453'
p352
aS'urn:cts:cwkb:2454'
p353
aS'urn:cts:cwkb:2455'
p354
aS'urn:cts:cwkb:2456'
p355
aS'urn:cts:cwkb:2458'
p356
aS'urn:cts:cwkb:2459'
p357
aS'urn:cts:cwkb:2460'
p358
aS'urn:cts:cwkb:2461'
p359
aS'urn:cts:cwkb:2462'
p360
aS'urn:cts:cwkb:2463'
p361
aS'urn:cts:cwkb:2464'
p362
aS'urn:cts:cwkb:2465'
p363
aS'urn:cts:cwkb:2466'
p364
aS'urn:cts:cwkb:2467'
p365
aS'urn:cts:cwkb:2468'
p366
aS'urn:cts:cwkb:2469'
p367
aS'urn:cts:cwkb:2470'
p368
aS'urn:cts:cwkb:2471'
p369
aS'urn:cts:greekLit:tlg0036'
p370
aS'urn:cts:cwkb:2474'
p371
aS'urn:cts:cwkb:2476'
p372
aS'urn:cts:cwkb:2477'
p373
aS'urn:cts:cwkb:2478'
p374
aS'urn:cts:cwkb:2479'
p375
aS'urn:cts:cwkb:2480'
p376
aS'urn:cts:cwkb:2481'
p377
aS'urn:cts:cwkb:2482'
p378
aS'urn:cts:cwkb:2483'
p379
aS'urn:cts:cwkb:2484'
p380
aS'urn:cts:cwkb:2485'
p381
aS'urn:cts:cwkb:2486'
p382
aS'urn:cts:cwkb:2487'
p383
aS'urn:cts:cwkb:2488'
p384
aS'urn:cts:cwkb:2489'
p385
aS'urn:cts:cwkb:2490'
p386
aS'urn:cts:cwkb:2491'
p387
aS'urn:cts:cwkb:2492'
p388
aS'urn:cts:cwkb:2493'
p389
aS'urn:cts:cwkb:2494'
p390
aS'urn:cts:cwkb:2495'
p391
aS'urn:cts:cwkb:2496'
p392
aS'urn:cts:cwkb:2497'
p393
aS'urn:cts:cwkb:2498'
p394
aS'urn:cts:cwkb:2499'
p395
aS'urn:cts:cwkb:2501'
p396
aS'urn:cts:cwkb:2502'
p397
aS'urn:cts:cwkb:2503'
p398
aS'urn:cts:cwkb:2505'
p399
aS'urn:cts:cwkb:2506'
p400
aS'urn:cts:cwkb:2507'
p401
aS'urn:cts:cwkb:2508'
p402
aS'urn:cts:cwkb:2509'
p403
aS'urn:cts:cwkb:2510'
p404
aS'urn:cts:cwkb:2512'
p405
aS'urn:cts:cwkb:2513'
p406
aS'urn:cts:cwkb:2514'
p407
aS'urn:cts:cwkb:2515'
p408
aS'urn:cts:cwkb:2516'
p409
aS'urn:cts:cwkb:2518'
p410
aS'urn:cts:cwkb:2519'
p411
aS'urn:cts:cwkb:2520'
p412
aS'urn:cts:cwkb:2521'
p413
aS'urn:cts:cwkb:2522'
p414
aS'urn:cts:cwkb:2523'
p415
aS'urn:cts:cwkb:2524'
p416
aS'urn:cts:cwkb:2525'
p417
aS'urn:cts:cwkb:2526'
p418
aS'urn:cts:cwkb:2527'
p419
aS'urn:cts:cwkb:2528'
p420
aS'urn:cts:cwkb:2529'
p421
aS'urn:cts:cwkb:2531'
p422
aS'urn:cts:cwkb:2532'
p423
aS'urn:cts:cwkb:2533'
p424
aS'urn:cts:cwkb:2534'
p425
aS'urn:cts:cwkb:2535'
p426
aS'urn:cts:cwkb:2536'
p427
aS'urn:cts:cwkb:2537'
p428
aS'urn:cts:cwkb:2538'
p429
aS'urn:cts:cwkb:2539'
p430
aS'urn:cts:cwkb:2540'
p431
aS'urn:cts:cwkb:2541'
p432
aS'urn:cts:cwkb:2542'
p433
aS'urn:cts:cwkb:2543'
p434
aS'urn:cts:cwkb:2544'
p435
aS'urn:cts:cwkb:2545'
p436
aS'urn:cts:cwkb:2546'
p437
aS'urn:cts:cwkb:2547'
p438
aS'urn:cts:cwkb:2548'
p439
aS'urn:cts:cwkb:2549'
p440
aS'urn:cts:cwkb:2550'
p441
aS'urn:cts:cwkb:2551'
p442
aS'urn:cts:cwkb:2552'
p443
aS'urn:cts:cwkb:2553'
p444
aS'urn:cts:cwkb:2554'
p445
aS'urn:cts:cwkb:2555'
p446
aS'urn:cts:cwkb:2556'
p447
aS'urn:cts:cwkb:2557'
p448
aS'urn:cts:cwkb:2558'
p449
aS'urn:cts:cwkb:2559'
p450
aS'urn:cts:cwkb:2560'
p451
aS'urn:cts:cwkb:2561'
p452
aS'urn:cts:cwkb:2562'
p453
aS'urn:cts:cwkb:2563'
p454
aS'urn:cts:cwkb:2564'
p455
aS'urn:cts:cwkb:2565'
p456
aS'urn:cts:cwkb:2566'
p457
aS'urn:cts:cwkb:2567'
p458
aS'urn:cts:cwkb:2568'
p459
aS'urn:cts:cwkb:2569'
p460
aS'urn:cts:cwkb:2570'
p461
aS'urn:cts:cwkb:2571'
p462
aS'urn:cts:cwkb:2572'
p463
aS'urn:cts:cwkb:2573'
p464
aS'urn:cts:cwkb:2574'
p465
aS'urn:cts:cwkb:2575'
p466
aS'urn:cts:cwkb:2576'
p467
aS'urn:cts:cwkb:2577'
p468
aS'urn:cts:cwkb:2578'
p469
aS'urn:cts:cwkb:2579'
p470
aS'urn:cts:cwkb:2580'
p471
aS'urn:cts:cwkb:2581'
p472
aS'urn:cts:cwkb:2582'
p473
aS'urn:cts:cwkb:2583'
p474
aS'urn:cts:cwkb:2584'
p475
aS'urn:cts:cwkb:2585'
p476
aS'urn:cts:cwkb:2586'
p477
aS'urn:cts:cwkb:2587'
p478
aS'urn:cts:cwkb:2589'
p479
aS'urn:cts:cwkb:2591'
p480
aS'urn:cts:cwkb:2592'
p481
aS'urn:cts:cwkb:2593'
p482
aS'urn:cts:cwkb:2594'
p483
aS'urn:cts:cwkb:2595'
p484
aS'urn:cts:cwkb:2596'
p485
aS'urn:cts:cwkb:2597'
p486
aS'urn:cts:cwkb:2598'
p487
aS'urn:cts:cwkb:2599'
p488
aS'urn:cts:cwkb:2600'
p489
aS'urn:cts:cwkb:2601'
p490
aS'urn:cts:cwkb:2602'
p491
aS'urn:cts:cwkb:2603'
p492
aS'urn:cts:cwkb:2604'
p493
aS'urn:cts:cwkb:2605'
p494
aS'urn:cts:cwkb:2606'
p495
aS'urn:cts:cwkb:2607'
p496
aS'urn:cts:cwkb:2608'
p497
aS'urn:cts:cwkb:2609'
p498
aS'urn:cts:cwkb:2610'
p499
aS'urn:cts:cwkb:2611'
p500
aS'urn:cts:cwkb:2612'
p501
aS'urn:cts:cwkb:2613'
p502
aS'urn:cts:cwkb:2614'
p503
aS'urn:cts:cwkb:2616'
p504
aS'urn:cts:cwkb:2617'
p505
aS'urn:cts:cwkb:2618'
p506
aS'urn:cts:cwkb:2619'
p507
aS'urn:cts:cwkb:2620'
p508
aS'urn:cts:cwkb:2621'
p509
aS'urn:cts:cwkb:2622'
p510
aS'urn:cts:cwkb:2623'
p511
aS'urn:cts:cwkb:2624'
p512
aS'urn:cts:cwkb:2625'
p513
aS'urn:cts:cwkb:2626'
p514
aS'urn:cts:cwkb:2627'
p515
aS'urn:cts:cwkb:2628'
p516
aS'urn:cts:cwkb:2629'
p517
aS'urn:cts:cwkb:2630'
p518
aS'urn:cts:cwkb:2631'
p519
aS'urn:cts:cwkb:2632'
p520
aS'urn:cts:cwkb:2633'
p521
aS'urn:cts:cwkb:2634'
p522
aS'urn:cts:cwkb:2635'
p523
aS'urn:cts:cwkb:2636'
p524
aS'urn:cts:cwkb:2637'
p525
aS'urn:cts:cwkb:2638'
p526
aS'urn:cts:greekLit:tlg0647'
p527
aS'urn:cts:cwkb:2640'
p528
aS'urn:cts:cwkb:2641'
p529
aS'urn:cts:cwkb:2642'
p530
aS'urn:cts:cwkb:2643'
p531
aS'urn:cts:cwkb:2644'
p532
aS'urn:cts:cwkb:2645'
p533
aS'urn:cts:cwkb:2646'
p534
aS'urn:cts:cwkb:2647'
p535
aS'urn:cts:cwkb:2648'
p536
aS'urn:cts:cwkb:2649'
p537
aS'urn:cts:cwkb:2650'
p538
aS'urn:cts:cwkb:2651'
p539
aS'urn:cts:cwkb:2652'
p540
aS'urn:cts:cwkb:2653'
p541
aS'urn:cts:cwkb:2654'
p542
aS'urn:cts:cwkb:2655'
p543
aS'urn:cts:cwkb:2656'
p544
aS'urn:cts:cwkb:2657'
p545
aS'urn:cts:cwkb:2659'
p546
aS'urn:cts:cwkb:2660'
p547
aS'urn:cts:cwkb:2661'
p548
aS'urn:cts:cwkb:2662'
p549
aS'urn:cts:greekLit:tlg1600'
p550
aS'urn:cts:cwkb:2664'
p551
aS'urn:cts:cwkb:2665'
p552
aS'urn:cts:cwkb:2666'
p553
aS'urn:cts:cwkb:2667'
p554
aS'urn:cts:cwkb:2668'
p555
aS'urn:cts:cwkb:2669'
p556
aS'urn:cts:cwkb:2670'
p557
aS'urn:cts:cwkb:2671'
p558
aS'urn:cts:cwkb:2672'
p559
aS'urn:cts:cwkb:2673'
p560
aS'urn:cts:cwkb:2674'
p561
aS'urn:cts:cwkb:2675'
p562
aS'urn:cts:cwkb:2676'
p563
aS'urn:cts:cwkb:2677'
p564
aS'urn:cts:cwkb:2678'
p565
aS'urn:cts:cwkb:2679'
p566
aS'urn:cts:cwkb:2680'
p567
aS'urn:cts:cwkb:2681'
p568
aS'urn:cts:cwkb:2682'
p569
aS'urn:cts:cwkb:2683'
p570
aS'urn:cts:cwkb:2684'
p571
aS'urn:cts:cwkb:2685'
p572
aS'urn:cts:cwkb:2686'
p573
aS'urn:cts:cwkb:2687'
p574
aS'urn:cts:cwkb:2688'
p575
aS'urn:cts:cwkb:2689'
p576
aS'urn:cts:cwkb:2690'
p577
aS'urn:cts:cwkb:2691'
p578
aS'urn:cts:cwkb:2692'
p579
aS'urn:cts:cwkb:2693'
p580
aS'urn:cts:cwkb:2694'
p581
aS'urn:cts:cwkb:2695'
p582
aS'urn:cts:cwkb:2696'
p583
aS'urn:cts:cwkb:2697'
p584
aS'urn:cts:cwkb:2698'
p585
aS'urn:cts:cwkb:2699'
p586
aS'urn:cts:cwkb:2700'
p587
aS'urn:cts:cwkb:2701'
p588
aS'urn:cts:cwkb:2703'
p589
aS'urn:cts:cwkb:2705'
p590
aS'urn:cts:cwkb:2706'
p591
aS'urn:cts:cwkb:2707'
p592
aS'urn:cts:cwkb:2709'
p593
aS'urn:cts:cwkb:2710'
p594
aS'urn:cts:cwkb:2711'
p595
aS'urn:cts:cwkb:2712'
p596
aS'urn:cts:cwkb:2713'
p597
aS'urn:cts:cwkb:2714'
p598
aS'urn:cts:cwkb:2715'
p599
aS'urn:cts:cwkb:2716'
p600
aS'urn:cts:cwkb:2717'
p601
aS'urn:cts:cwkb:2718'
p602
aS'urn:cts:cwkb:2719'
p603
aS'urn:cts:cwkb:2720'
p604
aS'urn:cts:cwkb:2721'
p605
aS'urn:cts:cwkb:2722'
p606
aS'urn:cts:cwkb:2723'
p607
aS'urn:cts:cwkb:2724'
p608
aS'urn:cts:cwkb:2725'
p609
aS'urn:cts:cwkb:2726'
p610
aS'urn:cts:cwkb:2727'
p611
aS'urn:cts:cwkb:2728'
p612
aS'urn:cts:cwkb:2729'
p613
aS'urn:cts:cwkb:2730'
p614
aS'urn:cts:cwkb:2731'
p615
aS'urn:cts:cwkb:2732'
p616
aS'urn:cts:cwkb:2733'
p617
aS'urn:cts:cwkb:2734'
p618
aS'urn:cts:cwkb:2735'
p619
aS'urn:cts:cwkb:2736'
p620
aS'urn:cts:cwkb:2737'
p621
aS'urn:cts:cwkb:2738'
p622
aS'urn:cts:cwkb:2739'
p623
aS'urn:cts:cwkb:2740'
p624
aS'urn:cts:cwkb:2741'
p625
aS'urn:cts:cwkb:2742'
p626
aS'urn:cts:cwkb:2743'
p627
aS'urn:cts:cwkb:2744'
p628
aS'urn:cts:cwkb:2745'
p629
aS'urn:cts:cwkb:2746'
p630
aS'urn:cts:cwkb:2747'
p631
aS'urn:cts:cwkb:2748'
p632
aS'urn:cts:cwkb:2749'
p633
aS'urn:cts:cwkb:2750'
p634
aS'urn:cts:cwkb:2751'
p635
aS'urn:cts:cwkb:2752'
p636
aS'urn:cts:cwkb:2753'
p637
aS'urn:cts:cwkb:2754'
p638
aS'urn:cts:cwkb:2755'
p639
aS'urn:cts:cwkb:2757'
p640
aS'urn:cts:cwkb:2758'
p641
aS'urn:cts:cwkb:2760'
p642
aS'urn:cts:cwkb:2761'
p643
aS'urn:cts:cwkb:2762'
p644
aS'urn:cts:cwkb:2763'
p645
aS'urn:cts:cwkb:2764'
p646
aS'urn:cts:cwkb:2765'
p647
aS'urn:cts:cwkb:2766'
p648
aS'urn:cts:cwkb:2767'
p649
aS'urn:cts:cwkb:2768'
p650
aS'urn:cts:cwkb:2769'
p651
aS'urn:cts:cwkb:2770'
p652
aS'urn:cts:cwkb:2771'
p653
aS'urn:cts:cwkb:2772'
p654
aS'urn:cts:cwkb:2773'
p655
aS'urn:cts:cwkb:2774'
p656
aS'urn:cts:cwkb:2775'
p657
aS'urn:cts:cwkb:2776'
p658
aS'urn:cts:cwkb:2777'
p659
aS'urn:cts:cwkb:2778'
p660
aS'urn:cts:cwkb:2779'
p661
aS'urn:cts:cwkb:2780'
p662
aS'urn:cts:cwkb:2781'
p663
aS'urn:cts:cwkb:2782'
p664
aS'urn:cts:cwkb:2783'
p665
aS'urn:cts:cwkb:2784'
p666
aS'urn:cts:cwkb:2785'
p667
aS'urn:cts:cwkb:2786'
p668
aS'urn:cts:cwkb:2787'
p669
aS'urn:cts:cwkb:2788'
p670
aS'urn:cts:cwkb:2789'
p671
aS'urn:cts:cwkb:2790'
p672
aS'urn:cts:cwkb:2791'
p673
aS'urn:cts:cwkb:2792'
p674
aS'urn:cts:cwkb:2794'
p675
aS'urn:cts:cwkb:2795'
p676
aS'urn:cts:cwkb:2796'
p677
aS'urn:cts:cwkb:2797'
p678
aS'urn:cts:cwkb:2798'
p679
aS'urn:cts:cwkb:2799'
p680
aS'urn:cts:cwkb:2800'
p681
aS'urn:cts:cwkb:2801'
p682
aS'urn:cts:cwkb:2802'
p683
aS'urn:cts:cwkb:2804'
p684
aS'urn:cts:cwkb:2805'
p685
aS'urn:cts:cwkb:2806'
p686
aS'urn:cts:cwkb:2807'
p687
aS'urn:cts:cwkb:2808'
p688
aS'urn:cts:cwkb:2809'
p689
aS'urn:cts:cwkb:2810'
p690
aS'urn:cts:cwkb:2811'
p691
aS'urn:cts:cwkb:2812'
p692
aS'urn:cts:cwkb:2813'
p693
aS'urn:cts:cwkb:2814'
p694
aS'urn:cts:cwkb:2815'
p695
aS'urn:cts:cwkb:2816'
p696
aS'urn:cts:cwkb:2817'
p697
aS'urn:cts:cwkb:2818'
p698
aS'urn:cts:cwkb:2819'
p699
aS'urn:cts:cwkb:2820'
p700
aS'urn:cts:cwkb:2821'
p701
aS'urn:cts:cwkb:2822'
p702
aS'urn:cts:cwkb:2823'
p703
aS'urn:cts:cwkb:2824'
p704
aS'urn:cts:cwkb:2826'
p705
aS'urn:cts:cwkb:2829'
p706
aS'urn:cts:cwkb:2830'
p707
aS'urn:cts:cwkb:2831'
p708
aS'urn:cts:cwkb:2832'
p709
aS'urn:cts:cwkb:2833'
p710
aS'urn:cts:cwkb:2834'
p711
aS'urn:cts:cwkb:2835'
p712
aS'urn:cts:cwkb:2837'
p713
aS'urn:cts:cwkb:2840'
p714
aS'urn:cts:cwkb:2841'
p715
aS'urn:cts:cwkb:2842'
p716
aS'urn:cts:cwkb:2843'
p717
aS'urn:cts:cwkb:2844'
p718
aS'urn:cts:cwkb:2845'
p719
aS'urn:cts:latinLit:stoa0023'
p720
aS'urn:cts:greekLit:tlg0548'
p721
aS'urn:cts:cwkb:2848'
p722
aS'urn:cts:cwkb:2849'
p723
aS'urn:cts:cwkb:2850'
p724
aS'urn:cts:cwkb:2851'
p725
aS'urn:cts:cwkb:2852'
p726
aS'urn:cts:cwkb:2854'
p727
aS'urn:cts:cwkb:2855'
p728
aS'urn:cts:cwkb:2856'
p729
aS'urn:cts:cwkb:2857'
p730
aS'urn:cts:cwkb:2858'
p731
aS'urn:cts:cwkb:2859'
p732
aS'urn:cts:cwkb:2860'
p733
aS'urn:cts:cwkb:2861'
p734
aS'urn:cts:cwkb:2862'
p735
aS'urn:cts:cwkb:2864'
p736
aS'urn:cts:cwkb:2865'
p737
aS'urn:cts:cwkb:2866'
p738
aS'urn:cts:cwkb:2867'
p739
aS'urn:cts:cwkb:2868'
p740
aS'urn:cts:cwkb:2869'
p741
aS'urn:cts:cwkb:2870'
p742
aS'urn:cts:cwkb:2871'
p743
aS'urn:cts:cwkb:2872'
p744
aS'urn:cts:cwkb:2873'
p745
aS'urn:cts:cwkb:2874'
p746
aS'urn:cts:cwkb:2875'
p747
aS'urn:cts:cwkb:2876'
p748
aS'urn:cts:cwkb:2877'
p749
aS'urn:cts:cwkb:2878'
p750
aS'urn:cts:cwkb:2879'
p751
aS'urn:cts:cwkb:2880'
p752
aS'urn:cts:cwkb:2881'
p753
aS'urn:cts:cwkb:2882'
p754
aS'urn:cts:cwkb:2883'
p755
aS'urn:cts:cwkb:2885'
p756
aS'urn:cts:cwkb:2886'
p757
aS'urn:cts:cwkb:2887'
p758
aS'urn:cts:cwkb:2888'
p759
aS'urn:cts:cwkb:2890'
p760
aS'urn:cts:cwkb:2891'
p761
aS'urn:cts:cwkb:2892'
p762
aS'urn:cts:cwkb:2893'
p763
aS'urn:cts:cwkb:2894'
p764
aS'urn:cts:cwkb:2895'
p765
aS'urn:cts:cwkb:2896'
p766
aS'urn:cts:cwkb:2897'
p767
aS'urn:cts:cwkb:2898'
p768
aS'urn:cts:cwkb:2899'
p769
aS'urn:cts:cwkb:2900'
p770
aS'urn:cts:cwkb:2901'
p771
aS'urn:cts:cwkb:2902'
p772
aS'urn:cts:cwkb:2903'
p773
aS'urn:cts:cwkb:2904'
p774
aS'urn:cts:cwkb:2905'
p775
aS'urn:cts:cwkb:2906'
p776
aS'urn:cts:cwkb:2907'
p777
aS'urn:cts:cwkb:2908'
p778
aS'urn:cts:cwkb:2909'
p779
aS'urn:cts:cwkb:2910'
p780
aS'urn:cts:cwkb:2911'
p781
aS'urn:cts:greekLit:tlg0560'
p782
aS'urn:cts:greekLit:tlg0562'
p783
aS'urn:cts:cwkb:2914'
p784
aS'urn:cts:cwkb:2915'
p785
aS'urn:cts:cwkb:2916'
p786
aS'urn:cts:cwkb:2917'
p787
aS'urn:cts:cwkb:2919'
p788
aS'urn:cts:cwkb:2920'
p789
aS'urn:cts:cwkb:2921'
p790
aS'urn:cts:cwkb:2922'
p791
aS'urn:cts:cwkb:2923'
p792
aS'urn:cts:cwkb:2924'
p793
aS'urn:cts:cwkb:2925'
p794
aS'urn:cts:cwkb:2926'
p795
aS'urn:cts:cwkb:2930'
p796
aS'urn:cts:cwkb:2931'
p797
aS'urn:cts:cwkb:2932'
p798
aS'urn:cts:cwkb:2933'
p799
aS'urn:cts:cwkb:2934'
p800
aS'urn:cts:cwkb:2935'
p801
aS'urn:cts:cwkb:2936'
p802
aS'urn:cts:cwkb:2938'
p803
aS'urn:cts:cwkb:2941'
p804
aS'urn:cts:cwkb:2942'
p805
aS'urn:cts:cwkb:2944'
p806
aS'urn:cts:cwkb:2945'
p807
aS'urn:cts:cwkb:2949'
p808
aS'urn:cts:cwkb:2950'
p809
aS'urn:cts:cwkb:2951'
p810
aS'urn:cts:cwkb:2952'
p811
aS'urn:cts:cwkb:2960'
p812
aS'urn:cts:cwkb:2961'
p813
aS'urn:cts:cwkb:2962'
p814
aS'urn:cts:cwkb:2963'
p815
aS'urn:cts:cwkb:2964'
p816
aS'urn:cts:cwkb:2968'
p817
aS'urn:cts:cwkb:2970'
p818
aS'urn:cts:cwkb:2972'
p819
aS'urn:cts:cwkb:2978'
p820
aS'urn:cts:cwkb:2979'
p821
aS'urn:cts:cwkb:2980'
p822
aS'urn:cts:cwkb:2982'
p823
aS'urn:cts:cwkb:2985'
p824
aS'urn:cts:cwkb:2988'
p825
aS'urn:cts:cwkb:2989'
p826
aS'urn:cts:cwkb:2990'
p827
aS'urn:cts:cwkb:2991'
p828
aS'urn:cts:cwkb:2992'
p829
aS'urn:cts:cwkb:2993'
p830
aS'urn:cts:cwkb:2995'
p831
aS'urn:cts:cwkb:2999'
p832
aS'urn:cts:cwkb:3002'
p833
aS'urn:cts:cwkb:3003'
p834
aS'urn:cts:cwkb:3004'
p835
aS'urn:cts:cwkb:3007'
p836
aS'urn:cts:cwkb:3012'
p837
aS'urn:cts:cwkb:3014'
p838
aS'urn:cts:cwkb:3017'
p839
aS'urn:cts:cwkb:3020'
p840
aS'urn:cts:cwkb:3021'
p841
aS'urn:cts:cwkb:3022'
p842
aS'urn:cts:cwkb:3024'
p843
aS'urn:cts:cwkb:3026'
p844
aS'urn:cts:cwkb:3027'
p845
aS'urn:cts:cwkb:3029'
p846
aS'urn:cts:cwkb:3030'
p847
aS'urn:cts:greekLit:tlg7000'
p848
aS'urn:cts:cwkb:3032'
p849
aS'urn:cts:cwkb:3033'
p850
aS'urn:cts:cwkb:3034'
p851
aS'urn:cts:cwkb:3035'
p852
aS'urn:cts:cwkb:3036'
p853
aS'urn:cts:cwkb:3037'
p854
aS'urn:cts:cwkb:3038'
p855
aS'urn:cts:cwkb:3039'
p856
aS'urn:cts:cwkb:3040'
p857
aS'urn:cts:cwkb:3041'
p858
aS'urn:cts:cwkb:3042'
p859
aS'urn:cts:cwkb:3043'
p860
aS'urn:cts:cwkb:3044'
p861
aS'urn:cts:cwkb:3045'
p862
aS'urn:cts:cwkb:3046'
p863
aS'urn:cts:cwkb:3047'
p864
aS'urn:cts:cwkb:3048'
p865
aS'urn:cts:cwkb:3049'
p866
aS'urn:cts:cwkb:3050'
p867
aS'urn:cts:cwkb:3051'
p868
aS'urn:cts:cwkb:3052'
p869
aS'urn:cts:cwkb:3053'
p870
aS'urn:cts:cwkb:3054'
p871
aS'urn:cts:cwkb:3055'
p872
aS'urn:cts:cwkb:3056'
p873
aS'urn:cts:cwkb:3057'
p874
aS'urn:cts:cwkb:3058'
p875
aS'urn:cts:cwkb:3059'
p876
aS'urn:cts:cwkb:3060'
p877
aS'urn:cts:cwkb:3061'
p878
aS'urn:cts:cwkb:3062'
p879
aS'urn:cts:cwkb:3063'
p880
aS'urn:cts:cwkb:3064'
p881
aS'urn:cts:cwkb:3065'
p882
aS'urn:cts:cwkb:3066'
p883
aS'urn:cts:cwkb:3067'
p884
aS'urn:cts:cwkb:3068'
p885
aS'urn:cts:cwkb:3069'
p886
aS'urn:cts:cwkb:3070'
p887
aS'urn:cts:cwkb:3071'
p888
aS'urn:cts:cwkb:3072'
p889
aS'urn:cts:cwkb:3073'
p890
aS'urn:cts:cwkb:3074'
p891
aS'urn:cts:cwkb:3075'
p892
aS'urn:cts:cwkb:3076'
p893
aS'urn:cts:cwkb:3078'
p894
aS'urn:cts:cwkb:3079'
p895
aS'urn:cts:cwkb:3080'
p896
aS'urn:cts:cwkb:3081'
p897
aS'urn:cts:cwkb:3082'
p898
aS'urn:cts:cwkb:3083'
p899
aS'urn:cts:cwkb:3084'
p900
aS'urn:cts:cwkb:3085'
p901
aS'urn:cts:cwkb:3086'
p902
aS'urn:cts:cwkb:3087'
p903
aS'urn:cts:cwkb:3088'
p904
aS'urn:cts:cwkb:3089'
p905
aS'urn:cts:cwkb:3090'
p906
aS'urn:cts:cwkb:3091'
p907
aS'urn:cts:cwkb:3092'
p908
aS'urn:cts:cwkb:3093'
p909
aS'urn:cts:cwkb:3094'
p910
aS'urn:cts:cwkb:3095'
p911
aS'urn:cts:cwkb:3096'
p912
aS'urn:cts:cwkb:3097'
p913
aS'urn:cts:cwkb:3098'
p914
aS'urn:cts:cwkb:3099'
p915
aS'urn:cts:cwkb:3100'
p916
aS'urn:cts:cwkb:3101'
p917
aS'urn:cts:cwkb:3102'
p918
aS'urn:cts:cwkb:3103'
p919
aS'urn:cts:cwkb:3104'
p920
aS'urn:cts:cwkb:3105'
p921
aS'urn:cts:cwkb:3106'
p922
aS'urn:cts:cwkb:3107'
p923
aS'urn:cts:cwkb:3108'
p924
aS'urn:cts:cwkb:3109'
p925
aS'urn:cts:cwkb:3110'
p926
aS'urn:cts:cwkb:3111'
p927
aS'urn:cts:cwkb:3112'
p928
aS'urn:cts:cwkb:3114'
p929
aS'urn:cts:cwkb:3115'
p930
aS'urn:cts:cwkb:3116'
p931
aS'urn:cts:cwkb:3117'
p932
aS'urn:cts:cwkb:3118'
p933
aS'urn:cts:cwkb:3119'
p934
aS'urn:cts:cwkb:3120'
p935
aS'urn:cts:cwkb:3121'
p936
aS'urn:cts:cwkb:357'
p937
aS'urn:cts:cwkb:358'
p938
aS'urn:cts:cwkb:359'
p939
aS'urn:cts:cwkb:360'
p940
aS'urn:cts:cwkb:361'
p941
aS'urn:cts:cwkb:362'
p942
aS'urn:cts:cwkb:363'
p943
aS'urn:cts:cwkb:364'
p944
aS'urn:cts:cwkb:365'
p945
aS'urn:cts:cwkb:367'
p946
aS'urn:cts:cwkb:368'
p947
aS'urn:cts:cwkb:369'
p948
aS'urn:cts:cwkb:370'
p949
aS'urn:cts:cwkb:371'
p950
aS'urn:cts:cwkb:372'
p951
aS'urn:cts:cwkb:373'
p952
aS'urn:cts:cwkb:374'
p953
aS'urn:cts:cwkb:375'
p954
aS'urn:cts:cwkb:376'
p955
aS'urn:cts:cwkb:377'
p956
aS'urn:cts:cwkb:378'
p957
aS'urn:cts:cwkb:379'
p958
aS'urn:cts:cwkb:380'
p959
aS'urn:cts:cwkb:381'
p960
aS'urn:cts:cwkb:382'
p961
aS'urn:cts:cwkb:383'
p962
aS'urn:cts:cwkb:384'
p963
aS'urn:cts:cwkb:385'
p964
aS'urn:cts:cwkb:386'
p965
aS'urn:cts:cwkb:387'
p966
aS'urn:cts:cwkb:388'
p967
aS'urn:cts:cwkb:389'
p968
aS'urn:cts:cwkb:390'
p969
aS'urn:cts:cwkb:391'
p970
aS'urn:cts:cwkb:393'
p971
aS'urn:cts:cwkb:394'
p972
aS'urn:cts:cwkb:396'
p973
aS'urn:cts:cwkb:397'
p974
aS'urn:cts:cwkb:398'
p975
aS'urn:cts:cwkb:399'
p976
aS'urn:cts:cwkb:400'
p977
aS'urn:cts:cwkb:401'
p978
aS'urn:cts:cwkb:402'
p979
aS'urn:cts:cwkb:403'
p980
aS'urn:cts:cwkb:404'
p981
aS'urn:cts:cwkb:405'
p982
aS'urn:cts:cwkb:406'
p983
aS'urn:cts:cwkb:407'
p984
aS'urn:cts:cwkb:408'
p985
aS'urn:cts:cwkb:409'
p986
aS'urn:cts:cwkb:410'
p987
aS'urn:cts:cwkb:411'
p988
aS'urn:cts:cwkb:412'
p989
aS'urn:cts:cwkb:413'
p990
aS'urn:cts:cwkb:414'
p991
aS'urn:cts:cwkb:415'
p992
aS'urn:cts:cwkb:416'
p993
aS'urn:cts:cwkb:417'
p994
aS'urn:cts:cwkb:418'
p995
aS'urn:cts:cwkb:419'
p996
aS'urn:cts:cwkb:420'
p997
aS'urn:cts:cwkb:421'
p998
aS'urn:cts:cwkb:422'
p999
aS'urn:cts:cwkb:423'
p1000
aS'urn:cts:cwkb:424'
p1001
aS'urn:cts:cwkb:425'
p1002
aS'urn:cts:cwkb:426'
p1003
aS'urn:cts:latinLit:phi0472'
p1004
aS'urn:cts:cwkb:428'
p1005
aS'urn:cts:cwkb:429'
p1006
aS'urn:cts:cwkb:430'
p1007
aS'urn:cts:cwkb:431'
p1008
aS'urn:cts:cwkb:432'
p1009
aS'urn:cts:cwkb:433'
p1010
aS'urn:cts:cwkb:434'
p1011
aS'urn:cts:cwkb:435'
p1012
aS'urn:cts:cwkb:436'
p1013
aS'urn:cts:cwkb:437'
p1014
aS'urn:cts:cwkb:438'
p1015
aS'urn:cts:cwkb:439'
p1016
aS'urn:cts:cwkb:440'
p1017
aS'urn:cts:cwkb:441'
p1018
aS'urn:cts:cwkb:442'
p1019
aS'urn:cts:cwkb:443'
p1020
aS'urn:cts:cwkb:444'
p1021
aS'urn:cts:cwkb:446'
p1022
aS'urn:cts:cwkb:447'
p1023
aS'urn:cts:cwkb:448'
p1024
aS'urn:cts:cwkb:449'
p1025
aS'urn:cts:cwkb:450'
p1026
aS'urn:cts:cwkb:451'
p1027
aS'urn:cts:cwkb:452'
p1028
aS'urn:cts:cwkb:453'
p1029
aS'urn:cts:cwkb:454'
p1030
aS'urn:cts:cwkb:455'
p1031
aS'urn:cts:cwkb:456'
p1032
aS'urn:cts:cwkb:457'
p1033
aS'urn:cts:cwkb:458'
p1034
aS'urn:cts:cwkb:459'
p1035
aS'urn:cts:cwkb:460'
p1036
aS'urn:cts:cwkb:461'
p1037
aS'urn:cts:cwkb:462'
p1038
aS'urn:cts:cwkb:463'
p1039
aS'urn:cts:cwkb:464'
p1040
aS'urn:cts:cwkb:465'
p1041
aS'urn:cts:cwkb:466'
p1042
aS'urn:cts:cwkb:467'
p1043
aS'urn:cts:cwkb:468'
p1044
aS'urn:cts:cwkb:469'
p1045
aS'urn:cts:cwkb:470'
p1046
aS'urn:cts:cwkb:471'
p1047
aS'urn:cts:cwkb:472'
p1048
aS'urn:cts:cwkb:473'
p1049
aS'urn:cts:cwkb:474'
p1050
aS'urn:cts:cwkb:475'
p1051
aS'urn:cts:cwkb:476'
p1052
aS'urn:cts:cwkb:477'
p1053
aS'urn:cts:cwkb:478'
p1054
aS'urn:cts:cwkb:479'
p1055
aS'urn:cts:cwkb:480'
p1056
aS'urn:cts:cwkb:481'
p1057
aS'urn:cts:cwkb:482'
p1058
aS'urn:cts:cwkb:483'
p1059
aS'urn:cts:latinLit:phi1254'
p1060
aS'urn:cts:cwkb:485'
p1061
aS'urn:cts:cwkb:486'
p1062
aS'urn:cts:cwkb:487'
p1063
aS'urn:cts:cwkb:488'
p1064
aS'urn:cts:cwkb:489'
p1065
aS'urn:cts:cwkb:490'
p1066
aS'urn:cts:cwkb:491'
p1067
aS'urn:cts:cwkb:492'
p1068
aS'urn:cts:cwkb:493'
p1069
aS'urn:cts:cwkb:494'
p1070
aS'urn:cts:cwkb:495'
p1071
aS'urn:cts:cwkb:496'
p1072
aS'urn:cts:cwkb:497'
p1073
aS'urn:cts:cwkb:498'
p1074
aS'urn:cts:latinLit:phi0893'
p1075
aS'urn:cts:cwkb:500'
p1076
aS'urn:cts:cwkb:501'
p1077
aS'urn:cts:cwkb:502'
p1078
aS'urn:cts:cwkb:503'
p1079
aS'urn:cts:cwkb:504'
p1080
aS'urn:cts:cwkb:505'
p1081
aS'urn:cts:cwkb:506'
p1082
aS'urn:cts:cwkb:507'
p1083
aS'urn:cts:cwkb:508'
p1084
aS'urn:cts:cwkb:509'
p1085
aS'urn:cts:cwkb:510'
p1086
aS'urn:cts:cwkb:511'
p1087
aS'urn:cts:cwkb:512'
p1088
aS'urn:cts:cwkb:513'
p1089
aS'urn:cts:cwkb:514'
p1090
aS'urn:cts:cwkb:515'
p1091
aS'urn:cts:cwkb:516'
p1092
aS'urn:cts:cwkb:517'
p1093
aS'urn:cts:cwkb:518'
p1094
aS'urn:cts:cwkb:519'
p1095
aS'urn:cts:cwkb:520'
p1096
aS'urn:cts:cwkb:521'
p1097
aS'urn:cts:cwkb:522'
p1098
aS'urn:cts:cwkb:523'
p1099
aS'urn:cts:cwkb:524'
p1100
aS'urn:cts:latinLit:phi0917'
p1101
aS'urn:cts:cwkb:526'
p1102
aS'urn:cts:cwkb:527'
p1103
aS'urn:cts:cwkb:528'
p1104
aS'urn:cts:cwkb:529'
p1105
aS'urn:cts:cwkb:530'
p1106
aS'urn:cts:cwkb:531'
p1107
aS'urn:cts:cwkb:532'
p1108
aS'urn:cts:cwkb:533'
p1109
aS'urn:cts:cwkb:534'
p1110
aS'urn:cts:cwkb:535'
p1111
aS'urn:cts:cwkb:536'
p1112
aS'urn:cts:cwkb:537'
p1113
aS'urn:cts:cwkb:538'
p1114
aS'urn:cts:cwkb:539'
p1115
aS'urn:cts:cwkb:540'
p1116
aS'urn:cts:cwkb:541'
p1117
aS'urn:cts:cwkb:542'
p1118
aS'urn:cts:cwkb:543'
p1119
aS'urn:cts:cwkb:544'
p1120
aS'urn:cts:cwkb:545'
p1121
aS'urn:cts:cwkb:546'
p1122
aS'urn:cts:cwkb:547'
p1123
aS'urn:cts:cwkb:548'
p1124
aS'urn:cts:cwkb:549'
p1125
aS'urn:cts:cwkb:550'
p1126
aS'urn:cts:cwkb:552'
p1127
aS'urn:cts:cwkb:553'
p1128
aS'urn:cts:cwkb:554'
p1129
aS'urn:cts:cwkb:555'
p1130
aS'urn:cts:cwkb:556'
p1131
aS'urn:cts:cwkb:557'
p1132
aS'urn:cts:cwkb:558'
p1133
aS'urn:cts:cwkb:559'
p1134
aS'urn:cts:cwkb:560'
p1135
aS'urn:cts:cwkb:561'
p1136
aS'urn:cts:cwkb:562'
p1137
aS'urn:cts:cwkb:563'
p1138
aS'urn:cts:cwkb:564'
p1139
aS'urn:cts:cwkb:565'
p1140
aS'urn:cts:cwkb:566'
p1141
aS'urn:cts:cwkb:567'
p1142
aS'urn:cts:cwkb:568'
p1143
aS'urn:cts:cwkb:569'
p1144
aS'urn:cts:cwkb:570'
p1145
aS'urn:cts:cwkb:571'
p1146
aS'urn:cts:cwkb:572'
p1147
aS'urn:cts:cwkb:573'
p1148
aS'urn:cts:cwkb:574'
p1149
aS'urn:cts:cwkb:575'
p1150
aS'urn:cts:cwkb:576'
p1151
aS'urn:cts:cwkb:577'
p1152
aS'urn:cts:cwkb:578'
p1153
aS'urn:cts:latinLit:phi0972'
p1154
aS'urn:cts:latinLit:phi0975'
p1155
aS'urn:cts:cwkb:581'
p1156
aS'urn:cts:latinLit:phi0119'
p1157
aS'urn:cts:cwkb:584'
p1158
aS'urn:cts:cwkb:585'
p1159
aS'urn:cts:cwkb:586'
p1160
aS'urn:cts:cwkb:587'
p1161
aS'urn:cts:cwkb:588'
p1162
aS'urn:cts:cwkb:589'
p1163
aS'urn:cts:cwkb:590'
p1164
aS'urn:cts:cwkb:591'
p1165
aS'urn:cts:cwkb:592'
p1166
aS'urn:cts:cwkb:593'
p1167
aS'urn:cts:cwkb:594'
p1168
aS'urn:cts:cwkb:595'
p1169
aS'urn:cts:cwkb:596'
p1170
aS'urn:cts:latinLit:phi0620'
p1171
aS'urn:cts:cwkb:598'
p1172
aS'urn:cts:cwkb:599'
p1173
aS'urn:cts:cwkb:600'
p1174
aS'urn:cts:cwkb:601'
p1175
aS'urn:cts:cwkb:602'
p1176
aS'urn:cts:cwkb:603'
p1177
aS'urn:cts:cwkb:604'
p1178
aS'urn:cts:cwkb:605'
p1179
aS'urn:cts:cwkb:606'
p1180
aS'urn:cts:latinLit:phi0631'
p1181
aS'urn:cts:cwkb:608'
p1182
aS'urn:cts:cwkb:609'
p1183
aS'urn:cts:cwkb:610'
p1184
aS'urn:cts:cwkb:611'
p1185
aS'urn:cts:cwkb:612'
p1186
aS'urn:cts:cwkb:613'
p1187
aS'urn:cts:cwkb:614'
p1188
aS'urn:cts:cwkb:615'
p1189
aS'urn:cts:cwkb:616'
p1190
aS'urn:cts:cwkb:617'
p1191
aS'urn:cts:cwkb:618'
p1192
aS'urn:cts:cwkb:619'
p1193
aS'urn:cts:cwkb:620'
p1194
aS'urn:cts:cwkb:622'
p1195
aS'urn:cts:cwkb:623'
p1196
aS'urn:cts:cwkb:624'
p1197
aS'urn:cts:cwkb:625'
p1198
aS'urn:cts:cwkb:626'
p1199
aS'urn:cts:cwkb:627'
p1200
aS'urn:cts:cwkb:628'
p1201
aS'urn:cts:cwkb:629'
p1202
aS'urn:cts:cwkb:630'
p1203
aS'urn:cts:cwkb:631'
p1204
aS'urn:cts:cwkb:632'
p1205
aS'urn:cts:cwkb:633'
p1206
aS'urn:cts:cwkb:634'
p1207
aS'urn:cts:cwkb:635'
p1208
aS'urn:cts:cwkb:636'
p1209
aS'urn:cts:cwkb:637'
p1210
aS'urn:cts:cwkb:638'
p1211
aS'urn:cts:cwkb:639'
p1212
aS'urn:cts:cwkb:640'
p1213
aS'urn:cts:cwkb:641'
p1214
aS'urn:cts:cwkb:642'
p1215
aS'urn:cts:cwkb:643'
p1216
aS'urn:cts:latinLit:phi1351'
p1217
aS'urn:cts:cwkb:645'
p1218
aS'urn:cts:latinLit:phi0134'
p1219
aS'urn:cts:cwkb:647'
p1220
aS'urn:cts:cwkb:648'
p1221
aS'urn:cts:cwkb:649'
p1222
aS'urn:cts:cwkb:650'
p1223
aS'urn:cts:cwkb:651'
p1224
aS'urn:cts:cwkb:652'
p1225
aS'urn:cts:cwkb:653'
p1226
aS'urn:cts:cwkb:654'
p1227
aS'urn:cts:cwkb:655'
p1228
aS'urn:cts:cwkb:656'
p1229
aS'urn:cts:cwkb:657'
p1230
aS'urn:cts:cwkb:658'
p1231
aS'urn:cts:cwkb:659'
p1232
aS'urn:cts:cwkb:660'
p1233
aS'urn:cts:cwkb:661'
p1234
aS'urn:cts:cwkb:662'
p1235
aS'urn:cts:cwkb:663'
p1236
aS'urn:cts:cwkb:664'
p1237
aS'urn:cts:cwkb:665'
p1238
aS'urn:cts:cwkb:666'
p1239
aS'urn:cts:cwkb:667'
p1240
aS'urn:cts:cwkb:668'
p1241
aS'urn:cts:cwkb:669'
p1242
aS'urn:cts:cwkb:670'
p1243
aS'urn:cts:cwkb:671'
p1244
aS'urn:cts:cwkb:672'
p1245
aS'urn:cts:cwkb:673'
p1246
aS'urn:cts:cwkb:674'
p1247
aS'urn:cts:cwkb:675'
p1248
aS'urn:cts:cwkb:676'
p1249
aS'urn:cts:latinLit:phi0690'
p1250
aS'urn:cts:cwkb:679'
p1251
aS'urn:cts:cwkb:680'
p1252
aS'urn:cts:cwkb:681'
p1253
aS'urn:cts:latinLit:phi1056'
p1254
aS'urn:cts:cwkb:683'
p1255
aS'urn:cts:cwkb:684'
p1256
aS'urn:cts:cwkb:706'
p1257
aS'urn:cts:cwkb:707'
p1258
aS'urn:cts:cwkb:708'
p1259
aS'urn:cts:cwkb:709'
p1260
aS'urn:cts:cwkb:710'
p1261
aS'urn:cts:cwkb:711'
p1262
aS'urn:cts:cwkb:712'
p1263
aS'urn:cts:cwkb:713'
p1264
aS'urn:cts:cwkb:714'
p1265
aS'urn:cts:cwkb:715'
p1266
aS'urn:cts:greekLit:tlg0058'
p1267
aS'urn:cts:greekLit:tlg0026'
p1268
aS'urn:cts:cwkb:718'
p1269
aS'urn:cts:greekLit:tlg0085'
p1270
aS'urn:cts:cwkb:720'
p1271
aS'urn:cts:cwkb:721'
p1272
aS'urn:cts:cwkb:722'
p1273
aS'urn:cts:cwkb:724'
p1274
aS'urn:cts:cwkb:725'
p1275
aS'urn:cts:cwkb:726'
p1276
aS'urn:cts:cwkb:727'
p1277
aS'urn:cts:cwkb:728'
p1278
aS'urn:cts:cwkb:729'
p1279
aS'urn:cts:cwkb:730'
p1280
aS'urn:cts:cwkb:731'
p1281
aS'urn:cts:cwkb:732'
p1282
aS'urn:cts:cwkb:733'
p1283
aS'urn:cts:greekLit:tlg0027'
p1284
aS'urn:cts:cwkb:736'
p1285
aS'urn:cts:cwkb:737'
p1286
aS'urn:cts:greekLit:tlg0028'
p1287
aS'urn:cts:cwkb:739'
p1288
aS'urn:cts:cwkb:740'
p1289
aS'urn:cts:cwkb:741'
p1290
aS'urn:cts:cwkb:742'
p1291
aS'urn:cts:cwkb:743'
p1292
aS'urn:cts:cwkb:744'
p1293
aS'urn:cts:cwkb:745'
p1294
aS'urn:cts:cwkb:746'
p1295
aS'urn:cts:cwkb:747'
p1296
aS'urn:cts:cwkb:748'
p1297
aS'urn:cts:cwkb:750'
p1298
aS'urn:cts:greekLit:tlg0001'
p1299
aS'urn:cts:greekLit:tlg0551'
p1300
aS'urn:cts:greekLit:tlg0653'
p1301
aS'urn:cts:cwkb:754'
p1302
aS'urn:cts:cwkb:756'
p1303
aS'urn:cts:cwkb:757'
p1304
aS'urn:cts:cwkb:758'
p1305
aS'urn:cts:greekLit:tlg0719'
p1306
aS'urn:cts:cwkb:760'
p1307
aS'urn:cts:cwkb:761'
p1308
aS'urn:cts:cwkb:762'
p1309
aS'urn:cts:cwkb:763'
p1310
aS'urn:cts:cwkb:764'
p1311
aS'urn:cts:greekLit:tlg0019'
p1312
aS'urn:cts:greekLit:tlg0086'
p1313
aS'urn:cts:cwkb:767'
p1314
aS'urn:cts:cwkb:768'
p1315
aS'urn:cts:cwkb:769'
p1316
aS'urn:cts:cwkb:770'
p1317
aS'urn:cts:greekLit:tlg0556'
p1318
aS'urn:cts:cwkb:772'
p1319
aS'urn:cts:cwkb:773'
p1320
aS'urn:cts:cwkb:774'
p1321
aS'urn:cts:cwkb:775'
p1322
aS'urn:cts:cwkb:777'
p1323
aS'urn:cts:cwkb:778'
p1324
aS'urn:cts:cwkb:779'
p1325
aS'urn:cts:cwkb:780'
p1326
aS'urn:cts:greekLit:tlg0199'
p1327
aS'urn:cts:greekLit:tlg1216'
p1328
aS'urn:cts:cwkb:783'
p1329
aS'urn:cts:greekLit:tlg2040'
p1330
aS'urn:cts:cwkb:785'
p1331
aS'urn:cts:cwkb:787'
p1332
aS'urn:cts:cwkb:788'
p1333
aS'urn:cts:greekLit:tlg0533'
p1334
aS'urn:cts:cwkb:790'
p1335
aS'urn:cts:greekLit:tlg4091'
p1336
aS'urn:cts:cwkb:792'
p1337
aS'urn:cts:cwkb:793'
p1338
aS'urn:cts:cwkb:794'
p1339
aS'urn:cts:cwkb:795'
p1340
aS'urn:cts:cwkb:796'
p1341
aS'urn:cts:greekLit:tlg0385'
p1342
aS'urn:cts:cwkb:798'
p1343
aS'urn:cts:greekLit:tlg0554'
p1344
aS'urn:cts:cwkb:800'
p1345
aS'urn:cts:cwkb:801'
p1346
aS'urn:cts:cwkb:802'
p1347
aS'urn:cts:cwkb:803'
p1348
aS'urn:cts:greekLit:tlg0545'
p1349
aS'urn:cts:greekLit:tlg0363'
p1350
aS'urn:cts:greekLit:tlg0555'
p1351
aS'urn:cts:cwkb:807'
p1352
aS'urn:cts:cwkb:808'
p1353
aS'urn:cts:cwkb:809'
p1354
aS'urn:cts:cwkb:810'
p1355
aS'urn:cts:cwkb:811'
p1356
aS'urn:cts:cwkb:812'
p1357
aS'urn:cts:greekLit:tlg4081'
p1358
aS'urn:cts:cwkb:814'
p1359
aS'urn:cts:cwkb:815'
p1360
aS'urn:cts:cwkb:816'
p1361
aS'urn:cts:cwkb:817'
p1362
aS'urn:cts:cwkb:818'
p1363
aS'urn:cts:cwkb:819'
p1364
aS'urn:cts:cwkb:820'
p1365
aS'urn:cts:cwkb:821'
p1366
aS'urn:cts:cwkb:822'
p1367
aS'urn:cts:cwkb:823'
p1368
aS'urn:cts:cwkb:825'
p1369
aS'urn:cts:cwkb:826'
p1370
aS'urn:cts:greekLit:tlg0014'
p1371
aS'urn:cts:cwkb:828'
p1372
aS'urn:cts:cwkb:829'
p1373
aS'urn:cts:cwkb:830'
p1374
aS'urn:cts:cwkb:831'
p1375
aS'urn:cts:cwkb:832'
p1376
aS'urn:cts:greekLit:tlg0029'
p1377
aS'urn:cts:greekLit:tlg0612'
p1378
aS'urn:cts:cwkb:835'
p1379
aS'urn:cts:greekLit:tlg0004'
p1380
aS'urn:cts:cwkb:837'
p1381
aS'urn:cts:greekLit:tlg0081'
p1382
aS'urn:cts:cwkb:839'
p1383
aS'urn:cts:cwkb:840'
p1384
aS'urn:cts:cwkb:841'
p1385
aS'urn:cts:cwkb:842'
p1386
aS'urn:cts:cwkb:843'
p1387
aS'urn:cts:cwkb:844'
p1388
aS'urn:cts:cwkb:845'
p1389
aS'urn:cts:cwkb:846'
p1390
aS'urn:cts:cwkb:847'
p1391
aS'urn:cts:cwkb:848'
p1392
aS'urn:cts:cwkb:849'
p1393
aS'urn:cts:greekLit:tlg0557'
p1394
aS'urn:cts:cwkb:851'
p1395
aS'urn:cts:cwkb:852'
p1396
aS'urn:cts:cwkb:853'
p1397
aS'urn:cts:cwkb:854'
p1398
aS'urn:cts:cwkb:855'
p1399
aS'urn:cts:cwkb:856'
p1400
aS'urn:cts:cwkb:857'
p1401
aS'urn:cts:cwkb:858'
p1402
aS'urn:cts:cwkb:859'
p1403
aS'urn:cts:cwkb:860'
p1404
aS'urn:cts:greekLit:tlg1799'
p1405
aS'urn:cts:cwkb:862'
p1406
aS'urn:cts:cwkb:863'
p1407
aS'urn:cts:cwkb:865'
p1408
aS'urn:cts:cwkb:866'
p1409
aS'urn:cts:cwkb:867'
p1410
aS'urn:cts:cwkb:868'
p1411
aS'urn:cts:greekLit:tlg0006'
p1412
aS'urn:cts:cwkb:870'
p1413
aS'urn:cts:greekLit:tlg2018'
p1414
aS'urn:cts:cwkb:872'
p1415
aS'urn:cts:cwkb:873'
p1416
aS'urn:cts:cwkb:874'
p1417
aS'urn:cts:cwkb:875'
p1418
aS'urn:cts:cwkb:876'
p1419
aS'urn:cts:cwkb:877'
p1420
aS'urn:cts:cwkb:878'
p1421
aS'urn:cts:cwkb:879'
p1422
aS'urn:cts:cwkb:880'
p1423
aS'urn:cts:cwkb:881'
p1424
aS'urn:cts:cwkb:882'
p1425
aS'urn:cts:cwkb:883'
p1426
aS'urn:cts:cwkb:884'
p1427
aS'urn:cts:greekLit:tlg0074'
p1428
aS'urn:cts:greekLit:tlg2003'
p1429
aS'urn:cts:greekLit:tlg0526'
p1430
aS'urn:cts:greekLit:tlg0638'
p1431
aS'urn:cts:cwkb:889'
p1432
aS'urn:cts:greekLit:tlg0057'
p1433
aS'urn:cts:cwkb:891'
p1434
aS'urn:cts:cwkb:892'
p1435
aS'urn:cts:cwkb:893'
p1436
aS'urn:cts:cwkb:894'
p1437
aS'urn:cts:cwkb:895'
p1438
aS'urn:cts:cwkb:896'
p1439
aS'urn:cts:cwkb:897'
p1440
aS'urn:cts:cwkb:898'
p1441
aS'urn:cts:cwkb:899'
p1442
aS'urn:cts:cwkb:900'
p1443
aS'urn:cts:cwkb:901'
p1444
aS'urn:cts:cwkb:903'
p1445
aS'urn:cts:cwkb:904'
p1446
aS'urn:cts:cwkb:905'
p1447
aS'urn:cts:cwkb:906'
p1448
aS'urn:cts:cwkb:907'
p1449
aS'urn:cts:cwkb:908'
p1450
aS'urn:cts:cwkb:909'
p1451
aS'urn:cts:cwkb:910'
p1452
aS'urn:cts:cwkb:911'
p1453
aS'urn:cts:cwkb:913'
p1454
aS'urn:cts:cwkb:914'
p1455
aS'urn:cts:greekLit:tlg0016'
p1456
aS'urn:cts:cwkb:916'
p1457
aS'urn:cts:greekLit:tlg0020'
p1458
aS'urn:cts:cwkb:918'
p1459
aS'urn:cts:cwkb:919'
p1460
aS'urn:cts:cwkb:920'
p1461
aS'urn:cts:cwkb:921'
p1462
aS'urn:cts:cwkb:922'
p1463
aS'urn:cts:greekLit:tlg0627'
p1464
aS'urn:cts:cwkb:924'
p1465
aS'urn:cts:cwkb:925'
p1466
aS'urn:cts:cwkb:926'
p1467
aS'urn:cts:greekLit:tlg0012'
p1468
aS'urn:cts:cwkb:928'
p1469
aS'urn:cts:greekLit:tlg0013'
p1470
aS'urn:cts:greekLit:tlg0030'
p1471
aS'urn:cts:cwkb:931'
p1472
aS'urn:cts:cwkb:932'
p1473
aS'urn:cts:cwkb:933'
p1474
aS'urn:cts:cwkb:934'
p1475
aS'urn:cts:cwkb:935'
p1476
aS'urn:cts:cwkb:936'
p1477
aS'urn:cts:greekLit:tlg0017'
p1478
aS'urn:cts:cwkb:938'
p1479
aS'urn:cts:greekLit:tlg0010'
p1480
aS'urn:cts:cwkb:941'
p1481
aS'urn:cts:cwkb:942'
p1482
aS'urn:cts:cwkb:943'
p1483
aS'urn:cts:cwkb:944'
p1484
aS'urn:cts:cwkb:945'
p1485
aS'urn:cts:cwkb:946'
p1486
aS'urn:cts:cwkb:947'
p1487
aS'urn:cts:cwkb:948'
p1488
aS'urn:cts:cwkb:949'
p1489
aS'urn:cts:cwkb:950'
p1490
aS'urn:cts:cwkb:951'
p1491
aS'urn:cts:cwkb:952'
p1492
aS'urn:cts:cwkb:953'
p1493
aS'urn:cts:greekLit:tlg0561'
p1494
aS'urn:cts:greekLit:tlg0062'
p1495
aS'urn:cts:cwkb:956'
p1496
aS'urn:cts:greekLit:tlg0341'
p1497
aS'urn:cts:greekLit:tlg0034'
p1498
aS'urn:cts:greekLit:tlg0540'
p1499
aS'urn:cts:cwkb:960'
p1500
aS'urn:cts:cwkb:961'
p1501
aS'urn:cts:cwkb:962'
p1502
aS'urn:cts:cwkb:963'
p1503
aS'urn:cts:cwkb:964'
p1504
aS'urn:cts:cwkb:965'
p1505
aS'urn:cts:cwkb:966'
p1506
aS'urn:cts:cwkb:967'
p1507
aS'urn:cts:cwkb:968'
p1508
aS'urn:cts:cwkb:970'
p1509
aS'urn:cts:cwkb:971'
p1510
aS'urn:cts:cwkb:972'
p1511
aS'urn:cts:cwkb:973'
p1512
aS'urn:cts:cwkb:974'
p1513
aS'urn:cts:cwkb:975'
p1514
aS'urn:cts:cwkb:976'
p1515
aS'urn:cts:cwkb:977'
p1516
aS'urn:cts:cwkb:978'
p1517
aS'urn:cts:cwkb:979'
p1518
aS'urn:cts:cwkb:980'
p1519
aS'urn:cts:cwkb:981'
p1520
aS'urn:cts:cwkb:982'
p1521
aS'urn:cts:cwkb:983'
p1522
aS'urn:cts:cwkb:984'
p1523
aS'urn:cts:cwkb:985'
p1524
aS'urn:cts:cwkb:986'
p1525
aS'urn:cts:cwkb:987'
p1526
aS'urn:cts:cwkb:988'
p1527
aS'urn:cts:cwkb:989'
p1528
aS'urn:cts:cwkb:990'
p1529
aS'urn:cts:cwkb:991'
p1530
aS'urn:cts:cwkb:992'
p1531
aS'urn:cts:greekLit:tlg0035'
p1532
aS'urn:cts:cwkb:994'
p1533
aS'urn:cts:cwkb:995'
p1534
aS'urn:cts:cwkb:996'
p1535
aS'urn:cts:cwkb:997'
p1536
aS'urn:cts:cwkb:998'
p1537
aS'urn:cts:cwkb:999'
p1538
a.