(lp0
S'urn:cts:cwkb:1000.3425'
p1
aS'urn:cts:cwkb:1000.3426'
p2
aS'urn:cts:cwkb:1000.3423'
p3
aS'urn:cts:cwkb:1000.3424'
p4
aS'urn:cts:cwkb:1001.3427'
p5
aS'urn:cts:cwkb:1001.3428'
p6
aS'urn:cts:cwkb:1001.8226'
p7
aS'urn:cts:cwkb:1001.9143'
p8
aS'urn:cts:greekLit:tlg2045.tlg001'
p9
aS'urn:cts:cwkb:1002.3431'
p10
aS'urn:cts:cwkb:1002.3430'
p11
aS'urn:cts:cwkb:1003.3432'
p12
aS'urn:cts:cwkb:1004.3433'
p13
aS'urn:cts:cwkb:1005.3434'
p14
aS'urn:cts:cwkb:1006.3435'
p15
aS'urn:cts:greekLit:tlg0648.tlg001'
p16
aS'urn:cts:greekLit:tlg0024.tlg001'
p17
aS'urn:cts:cwkb:1010.3440'
p18
aS'urn:cts:cwkb:1011.3441'
p19
aS'urn:cts:cwkb:1012.3442'
p20
aS'urn:cts:cwkb:1013.3443'
p21
aS'urn:cts:cwkb:1014.3444'
p22
aS'urn:cts:cwkb:1014.3445'
p23
aS'urn:cts:cwkb:1014.4475'
p24
aS'urn:cts:cwkb:1014.3446'
p25
aS'urn:cts:cwkb:1015.3485'
p26
aS'urn:cts:cwkb:1015.3450'
p27
aS'urn:cts:cwkb:1015.3462'
p28
aS'urn:cts:cwkb:1015.3452'
p29
aS'urn:cts:cwkb:1015.3486'
p30
aS'urn:cts:cwkb:1015.3457'
p31
aS'urn:cts:cwkb:1015.3472'
p32
aS'urn:cts:cwkb:1015.3463'
p33
aS'urn:cts:cwkb:1015.3468'
p34
aS'urn:cts:cwkb:1015.3461'
p35
aS'urn:cts:cwkb:1015.4520'
p36
aS'urn:cts:cwkb:1015.3456'
p37
aS'urn:cts:cwkb:1015.3459'
p38
aS'urn:cts:cwkb:1015.3488'
p39
aS'urn:cts:cwkb:1015.3455'
p40
aS'urn:cts:cwkb:1015.3474'
p41
aS'urn:cts:cwkb:1015.3447'
p42
aS'urn:cts:cwkb:1015.3489'
p43
aS'urn:cts:cwkb:1015.3487'
p44
aS'urn:cts:cwkb:1015.3475'
p45
aS'urn:cts:cwkb:1015.9511'
p46
aS'urn:cts:cwkb:1015.8333'
p47
aS'urn:cts:cwkb:1015.9184'
p48
aS'urn:cts:cwkb:1015.3476'
p49
aS'urn:cts:cwkb:1015.3478'
p50
aS'urn:cts:cwkb:1015.3482'
p51
aS'urn:cts:cwkb:1015.3480'
p52
aS'urn:cts:cwkb:1015.8165'
p53
aS'urn:cts:cwkb:1015.3492'
p54
aS'urn:cts:cwkb:1015.3479'
p55
aS'urn:cts:cwkb:1015.3469'
p56
aS'urn:cts:cwkb:1015.3471'
p57
aS'urn:cts:cwkb:1015.3491'
p58
aS'urn:cts:cwkb:1015.3448'
p59
aS'urn:cts:cwkb:1015.7996'
p60
aS'urn:cts:cwkb:1015.3470'
p61
aS'urn:cts:cwkb:1015.3454'
p62
aS'urn:cts:cwkb:1015.3451'
p63
aS'urn:cts:cwkb:1015.3453'
p64
aS'urn:cts:cwkb:1015.4519'
p65
aS'urn:cts:cwkb:1015.3449'
p66
aS'urn:cts:cwkb:1015.3460'
p67
aS'urn:cts:cwkb:1015.3483'
p68
aS'urn:cts:cwkb:1015.3481'
p69
aS'urn:cts:cwkb:1015.3473'
p70
aS'urn:cts:cwkb:1015.4518'
p71
aS'urn:cts:cwkb:1015.3484'
p72
aS'urn:cts:cwkb:1015.3467'
p73
aS'urn:cts:cwkb:1015.3458'
p74
aS'urn:cts:cwkb:1015.3464'
p75
aS'urn:cts:cwkb:1015.3490'
p76
aS'urn:cts:cwkb:1015.3466'
p77
aS'urn:cts:cwkb:1015.3465'
p78
aS'urn:cts:cwkb:1016.3493'
p79
aS'urn:cts:cwkb:1017.3494'
p80
aS'urn:cts:cwkb:1017.9464'
p81
aS'urn:cts:cwkb:1018.3497'
p82
aS'urn:cts:cwkb:1018.3496'
p83
aS'urn:cts:cwkb:1018.3495'
p84
aS'urn:cts:cwkb:1019.3502'
p85
aS'urn:cts:cwkb:1019.3501'
p86
aS'urn:cts:cwkb:1019.3500'
p87
aS'urn:cts:cwkb:1019.3499'
p88
aS'urn:cts:cwkb:1019.3498'
p89
aS'urn:cts:cwkb:1020.3503'
p90
aS'urn:cts:cwkb:1021.3504'
p91
aS'urn:cts:cwkb:1022.3506'
p92
aS'urn:cts:cwkb:1022.3505'
p93
aS'urn:cts:cwkb:1023.3507'
p94
aS'urn:cts:cwkb:1024.3508'
p95
aS'urn:cts:cwkb:1025.3509'
p96
aS'urn:cts:cwkb:1026.3510'
p97
aS'urn:cts:cwkb:1027.3511'
p98
aS'urn:cts:greekLit:tlg0655.tlg001'
p99
aS'urn:cts:cwkb:1028.3513'
p100
aS'urn:cts:cwkb:1029.3514'
p101
aS'urn:cts:cwkb:1029.3515'
p102
aS'urn:cts:cwkb:1030.3516'
p103
aS'urn:cts:greekLit:tlg0525.tlg001'
p104
aS'urn:cts:cwkb:1032.3518'
p105
aS'urn:cts:cwkb:1033.3519'
p106
aS'urn:cts:cwkb:1034.3520'
p107
aS'urn:cts:cwkb:1034.3521'
p108
aS'urn:cts:cwkb:1035.3522'
p109
aS'urn:cts:cwkb:1036.3523'
p110
aS'urn:cts:cwkb:1037.3524'
p111
aS'urn:cts:cwkb:1039.3526'
p112
aS'urn:cts:cwkb:1040.8335'
p113
aS'urn:cts:cwkb:1040.3527'
p114
aS'urn:cts:cwkb:1041.3528'
p115
aS'urn:cts:cwkb:1041.3530'
p116
aS'urn:cts:cwkb:1042.3538'
p117
aS'urn:cts:cwkb:1042.3548'
p118
aS'urn:cts:cwkb:1042.3547'
p119
aS'urn:cts:cwkb:1042.3561'
p120
aS'urn:cts:cwkb:1042.3540'
p121
aS'urn:cts:cwkb:1042.3563'
p122
aS'urn:cts:cwkb:1042.3555'
p123
aS'urn:cts:cwkb:1042.3543'
p124
aS'urn:cts:cwkb:1042.3541'
p125
aS'urn:cts:cwkb:1042.3535'
p126
aS'urn:cts:cwkb:1042.3542'
p127
aS'urn:cts:cwkb:1042.3562'
p128
aS'urn:cts:cwkb:1042.3545'
p129
aS'urn:cts:cwkb:1042.3534'
p130
aS'urn:cts:cwkb:1042.3544'
p131
aS'urn:cts:cwkb:1042.3560'
p132
aS'urn:cts:cwkb:1042.3565'
p133
aS'urn:cts:cwkb:1042.3567'
p134
aS'urn:cts:cwkb:1042.3554'
p135
aS'urn:cts:cwkb:1042.3558'
p136
aS'urn:cts:cwkb:1042.3553'
p137
aS'urn:cts:cwkb:1042.3546'
p138
aS'urn:cts:cwkb:1042.3550'
p139
aS'urn:cts:cwkb:1042.3552'
p140
aS'urn:cts:cwkb:1042.3537'
p141
aS'urn:cts:cwkb:1042.3551'
p142
aS'urn:cts:cwkb:1042.3533'
p143
aS'urn:cts:cwkb:1042.3564'
p144
aS'urn:cts:cwkb:1042.3556'
p145
aS'urn:cts:cwkb:1042.3566'
p146
aS'urn:cts:cwkb:1042.3549'
p147
aS'urn:cts:cwkb:1042.3536'
p148
aS'urn:cts:cwkb:1042.3557'
p149
aS'urn:cts:cwkb:1042.3559'
p150
aS'urn:cts:cwkb:1042.3531'
p151
aS'urn:cts:cwkb:1042.3532'
p152
aS'urn:cts:cwkb:1042.3539'
p153
aS'urn:cts:cwkb:1043.3568'
p154
aS'urn:cts:cwkb:1044.3569'
p155
aS'urn:cts:cwkb:1044.1184'
p156
aS'urn:cts:cwkb:1045.3570'
p157
aS'urn:cts:cwkb:1045.3571'
p158
aS'urn:cts:cwkb:1046.3572'
p159
aS'urn:cts:greekLit:tlg0033.tlg004'
p160
aS'urn:cts:greekLit:tlg0033.tlg002'
p161
aS'urn:cts:greekLit:tlg0033.tlg003'
p162
aS'urn:cts:greekLit:tlg0033.tlg001'
p163
aS'urn:cts:cwkb:1047.4595'
p164
aS'urn:cts:cwkb:1048.3578'
p165
aS'urn:cts:cwkb:1048.3577'
p166
aS'urn:cts:cwkb:1049.3579'
p167
aS'urn:cts:greekLit:tlg0059.tlg019'
p168
aS'urn:cts:greekLit:tlg0059.tlg014'
p169
aS'urn:cts:greekLit:tlg0059.tlg023'
p170
aS'urn:cts:greekLit:tlg0059.tlg013'
p171
aS'urn:cts:greekLit:tlg0059.tlg012'
p172
aS'urn:cts:greekLit:tlg0059.tlg010'
p173
aS'urn:cts:cwkb:1050.3589'
p174
aS'urn:cts:greekLit:tlg0059.tlg035'
p175
aS'urn:cts:greekLit:tlg0059.tlg030'
p176
aS'urn:cts:greekLit:tlg0059.tlg017'
p177
aS'urn:cts:greekLit:tlg0059.tlg026'
p178
aS'urn:cts:greekLit:tlg0059.tlg020'
p179
aS'urn:cts:greekLit:tlg0059.tlg016'
p180
aS'urn:cts:greekLit:tlg0059.tlg025'
p181
aS'urn:cts:greekLit:tlg0059.tlg028'
p182
aS'urn:cts:greekLit:tlg0059.tlg015'
p183
aS'urn:cts:cwkb:1050.3613'
p184
aS'urn:cts:greekLit:tlg0059.tlg004'
p185
aS'urn:cts:greekLit:tlg0059.tlg022'
p186
aS'urn:cts:greekLit:tlg0059.tlg006'
p187
aS'urn:cts:greekLit:tlg0059.tlg008'
p188
aS'urn:cts:greekLit:tlg0059.tlg021'
p189
aS'urn:cts:greekLit:tlg0059.tlg003'
p190
aS'urn:cts:greekLit:tlg0059.tlg033'
p191
aS'urn:cts:greekLit:tlg0059.tlg007'
p192
aS'urn:cts:greekLit:tlg0059.tlg001'
p193
aS'urn:cts:greekLit:tlg0059.tlg027'
p194
aS'urn:cts:greekLit:tlg0059.tlg031'
p195
aS'urn:cts:greekLit:tlg0059.tlg002'
p196
aS'urn:cts:greekLit:tlg0059.tlg009'
p197
aS'urn:cts:greekLit:tlg0059.tlg034'
p198
aS'urn:cts:greekLit:tlg0059.tlg024'
p199
aS'urn:cts:greekLit:tlg0059.tlg018'
p200
aS'urn:cts:greekLit:tlg0059.tlg036'
p201
aS'urn:cts:greekLit:tlg0059.tlg032'
p202
aS'urn:cts:greekLit:tlg0059.tlg029'
p203
aS'urn:cts:greekLit:tlg0059.tlg011'
p204
aS'urn:cts:greekLit:tlg0059.tlg005'
p205
aS'urn:cts:cwkb:1051.3618'
p206
aS'urn:cts:greekLit:tlg0007.tlg029'
p207
aS'urn:cts:greekLit:tlg0007.tlg045'
p208
aS'urn:cts:greekLit:tlg0007.tlg117'
p209
aS'urn:cts:greekLit:tlg0007.tlg065'
p210
aS'urn:cts:greekLit:tlg0007.tlg059'
p211
aS'urn:cts:greekLit:tlg0007.tlg078'
p212
aS'urn:cts:greekLit:tlg0007.tlg017'
p213
aS'urn:cts:greekLit:tlg0007.tlg013'
p214
aS'urn:cts:greekLit:tlg0007.tlg075'
p215
aS'urn:cts:greekLit:tlg0007.tlg002'
p216
aS'urn:cts:greekLit:tlg0007.tlg070'
p217
aS'urn:cts:greekLit:tlg0007.tlg101'
p218
aS'urn:cts:greekLit:tlg0007.tlg069'
p219
aS'urn:cts:greekLit:tlg0007.tlg023'
p220
aS'urn:cts:greekLit:tlg0007.tlg071'
p221
aS'urn:cts:greekLit:tlg0007.tlg064'
p222
aS'urn:cts:greekLit:tlg0007.tlg037'
p223
aS'urn:cts:greekLit:tlg0007.tlg049'
p224
aS'urn:cts:greekLit:tlg0007.tlg021'
p225
aS'urn:cts:greekLit:tlg0007.tlg014'
p226
aS'urn:cts:greekLit:tlg0007.tlg120'
p227
aS'urn:cts:greekLit:tlg0007.tlg119'
p228
aS'urn:cts:greekLit:tlg0007.tlg009'
p229
aS'urn:cts:greekLit:tlg0007.tlg005'
p230
aS'urn:cts:greekLit:tlg0007.tlg048'
p231
aS'urn:cts:greekLit:tlg0007.tlg135'
p232
aS'urn:cts:greekLit:tlg0007.tlg058'
p233
aS'urn:cts:cwkb:1052.3699'
p234
aS'urn:cts:greekLit:tlg0007.tlg116'
p235
aS'urn:cts:greekLit:tlg0007.tlg141'
p236
aS'urn:cts:greekLit:tlg0007.tlg028'
p237
aS'urn:cts:greekLit:tlg0007.tlg015'
p238
aS'urn:cts:greekLit:tlg0007.tlg019'
p239
aS'urn:cts:greekLit:tlg0007.tlg024'
p240
aS'urn:cts:greekLit:tlg0007.tlg020'
p241
aS'urn:cts:greekLit:tlg0007.tlg140'
p242
aS'urn:cts:greekLit:tlg0007.tlg139'
p243
aS'urn:cts:greekLit:tlg0007.tlg106'
p244
aS'urn:cts:greekLit:tlg0007.tlg046'
p245
aS'urn:cts:cwkb:1052.4423'
p246
aS'urn:cts:greekLit:tlg0007.tlg137'
p247
aS'urn:cts:greekLit:tlg0007.tlg044'
p248
aS'urn:cts:greekLit:tlg0007.tlg099'
p249
aS'urn:cts:greekLit:tlg0007.tlg063'
p250
aS'urn:cts:cwkb:1052.3625'
p251
aS'urn:cts:greekLit:tlg0007.tlg107'
p252
aS'urn:cts:greekLit:tlg0007.tlg018'
p253
aS'urn:cts:greekLit:tlg0007.tlg055'
p254
aS'urn:cts:greekLit:tlg0007.tlg126'
p255
aS'urn:cts:greekLit:tlg0007.tlg082'
p256
aS'urn:cts:greekLit:tlg0007.tlg006'
p257
aS'urn:cts:greekLit:tlg0007.tlg096'
p258
aS'urn:cts:greekLit:tlg0007.tlg031'
p259
aS'urn:cts:cwkb:1052.3735'
p260
aS'urn:cts:greekLit:tlg0007.tlg118'
p261
aS'urn:cts:greekLit:tlg0007.tlg091'
p262
aS'urn:cts:greekLit:tlg0007.tlg114'
p263
aS'urn:cts:greekLit:tlg0007.tlg057'
p264
aS'urn:cts:greekLit:tlg0007.tlg088'
p265
aS'urn:cts:greekLit:tlg0007.tlg138'
p266
aS'urn:cts:greekLit:tlg0007.tlg103'
p267
aS'urn:cts:greekLit:tlg0007.tlg041'
p268
aS'urn:cts:greekLit:tlg0007.tlg136'
p269
aS'urn:cts:greekLit:tlg0007.tlg016'
p270
aS'urn:cts:greekLit:tlg0007.tlg129'
p271
aS'urn:cts:greekLit:tlg0007.tlg123'
p272
aS'urn:cts:greekLit:tlg0007.tlg125'
p273
aS'urn:cts:greekLit:tlg0007.tlg102'
p274
aS'urn:cts:greekLit:tlg0007.tlg084a'
p275
aS'urn:cts:greekLit:tlg0007.tlg033'
p276
aS'urn:cts:greekLit:tlg0007.tlg030'
p277
aS'urn:cts:greekLit:tlg0007.tlg122'
p278
aS'urn:cts:greekLit:tlg0007.tlg098'
p279
aS'urn:cts:greekLit:tlg0007.tlg038'
p280
aS'urn:cts:greekLit:tlg0007.tlg133'
p281
aS'urn:cts:greekLit:tlg0007.tlg061'
p282
aS'urn:cts:greekLit:tlg0007.tlg090'
p283
aS'urn:cts:greekLit:tlg0007.tlg040'
p284
aS'urn:cts:cwkb:1052.3701'
p285
aS'urn:cts:greekLit:tlg0007.tlg068'
p286
aS'urn:cts:greekLit:tlg0007.tlg053'
p287
aS'urn:cts:cwkb:1052.3758'
p288
aS'urn:cts:greekLit:tlg0007.tlg012'
p289
aS'urn:cts:greekLit:tlg0007.tlg092'
p290
aS'urn:cts:greekLit:tlg0007.tlg036'
p291
aS'urn:cts:greekLit:tlg0007.tlg109'
p292
aS'urn:cts:greekLit:tlg0007.tlg094'
p293
aS'urn:cts:greekLit:tlg0007.tlg074'
p294
aS'urn:cts:greekLit:tlg0007.tlg112'
p295
aS'urn:cts:greekLit:tlg0007.tlg027'
p296
aS'urn:cts:greekLit:tlg0007.tlg007'
p297
aS'urn:cts:greekLit:tlg0007.tlg010'
p298
aS'urn:cts:greekLit:tlg0007.tlg008'
p299
aS'urn:cts:greekLit:tlg0007.tlg127'
p300
aS'urn:cts:greekLit:tlg0007.tlg035'
p301
aS'urn:cts:greekLit:tlg0007.tlg001'
p302
aS'urn:cts:greekLit:tlg0007.tlg121'
p303
aS'urn:cts:greekLit:tlg0007.tlg066'
p304
aS'urn:cts:greekLit:tlg0007.tlg132'
p305
aS'urn:cts:greekLit:tlg0007.tlg089'
p306
aS'urn:cts:greekLit:tlg0007.tlg043'
p307
aS'urn:cts:greekLit:tlg0007.tlg056'
p308
aS'urn:cts:greekLit:tlg0007.tlg067'
p309
aS'urn:cts:greekLit:tlg0007.tlg081'
p310
aS'urn:cts:greekLit:tlg0007.tlg011'
p311
aS'urn:cts:greekLit:tlg0007.tlg077'
p312
aS'urn:cts:greekLit:tlg0007.tlg130'
p313
aS'urn:cts:greekLit:tlg0007.tlg079'
p314
aS'urn:cts:greekLit:tlg0007.tlg131'
p315
aS'urn:cts:greekLit:tlg0007.tlg042'
p316
aS'urn:cts:cwkb:1052.8124'
p317
aS'urn:cts:greekLit:tlg0007.tlg073'
p318
aS'urn:cts:greekLit:tlg0007.tlg097'
p319
aS'urn:cts:greekLit:tlg0007.tlg062'
p320
aS'urn:cts:greekLit:tlg0007.tlg108'
p321
aS'urn:cts:greekLit:tlg0007.tlg025'
p322
aS'urn:cts:greekLit:tlg0007.tlg128'
p323
aS'urn:cts:greekLit:tlg0007.tlg054'
p324
aS'urn:cts:greekLit:tlg0007.tlg047'
p325
aS'urn:cts:greekLit:tlg0007.tlg085'
p326
aS'urn:cts:greekLit:tlg0007.tlg034'
p327
aS'urn:cts:greekLit:tlg0007.tlg086'
p328
aS'urn:cts:greekLit:tlg0007.tlg110'
p329
aS'urn:cts:greekLit:tlg0007.tlg115'
p330
aS'urn:cts:greekLit:tlg0007.tlg003'
p331
aS'urn:cts:greekLit:tlg0007.tlg134'
p332
aS'urn:cts:greekLit:tlg0007.tlg087'
p333
aS'urn:cts:greekLit:tlg0007.tlg083'
p334
aS'urn:cts:greekLit:tlg0007.tlg050'
p335
aS'urn:cts:greekLit:tlg0007.tlg104'
p336
aS'urn:cts:greekLit:tlg0007.tlg039'
p337
aS'urn:cts:greekLit:tlg0007.tlg080'
p338
aS'urn:cts:greekLit:tlg0007.tlg026'
p339
aS'urn:cts:greekLit:tlg0007.tlg111'
p340
aS'urn:cts:greekLit:tlg0007.tlg093'
p341
aS'urn:cts:greekLit:tlg0007.tlg100'
p342
aS'urn:cts:greekLit:tlg0007.tlg095'
p343
aS'urn:cts:greekLit:tlg0007.tlg113'
p344
aS'urn:cts:greekLit:tlg0007.tlg004'
p345
aS'urn:cts:greekLit:tlg0007.tlg032'
p346
aS'urn:cts:greekLit:tlg0007.tlg060'
p347
aS'urn:cts:greekLit:tlg0007.tlg076'
p348
aS'urn:cts:greekLit:tlg0007.tlg022'
p349
aS'urn:cts:greekLit:tlg0007.tlg105'
p350
aS'urn:cts:greekLit:tlg0007.tlg072'
p351
aS'urn:cts:cwkb:1053.8150'
p352
aS'urn:cts:cwkb:1053.3763'
p353
aS'urn:cts:cwkb:1053.3762'
p354
aS'urn:cts:greekLit:tlg0543.tlg001'
p355
aS'urn:cts:cwkb:1054.9483'
p356
aS'urn:cts:cwkb:1055.3765'
p357
aS'urn:cts:cwkb:1056.3781'
p358
aS'urn:cts:cwkb:1056.3775'
p359
aS'urn:cts:cwkb:1056.3777'
p360
aS'urn:cts:cwkb:1056.3772'
p361
aS'urn:cts:cwkb:1056.3785'
p362
aS'urn:cts:cwkb:1056.3784'
p363
aS'urn:cts:cwkb:1056.3767'
p364
aS'urn:cts:cwkb:1056.8032'
p365
aS'urn:cts:cwkb:1056.3773'
p366
aS'urn:cts:cwkb:1056.3783'
p367
aS'urn:cts:cwkb:1056.3770'
p368
aS'urn:cts:cwkb:1056.3782'
p369
aS'urn:cts:cwkb:1056.3778'
p370
aS'urn:cts:cwkb:1056.3779'
p371
aS'urn:cts:cwkb:1056.9150'
p372
aS'urn:cts:cwkb:1056.3766'
p373
aS'urn:cts:cwkb:1056.3780'
p374
aS'urn:cts:cwkb:1056.3771'
p375
aS'urn:cts:cwkb:1056.3774'
p376
aS'urn:cts:cwkb:1056.3776'
p377
aS'urn:cts:cwkb:1056.3768'
p378
aS'urn:cts:cwkb:1056.3769'
p379
aS'urn:cts:cwkb:1057.3786'
p380
aS'urn:cts:cwkb:1058.3787'
p381
aS'urn:cts:cwkb:1059.3827'
p382
aS'urn:cts:cwkb:1059.3820'
p383
aS'urn:cts:cwkb:1059.3793'
p384
aS'urn:cts:cwkb:1059.3798'
p385
aS'urn:cts:cwkb:1059.3822'
p386
aS'urn:cts:cwkb:1059.3788'
p387
aS'urn:cts:cwkb:1059.3813'
p388
aS'urn:cts:cwkb:1059.3819'
p389
aS'urn:cts:cwkb:1059.3816'
p390
aS'urn:cts:cwkb:1059.3796'
p391
aS'urn:cts:cwkb:1059.3794'
p392
aS'urn:cts:cwkb:1059.3812'
p393
aS'urn:cts:cwkb:1059.3815'
p394
aS'urn:cts:cwkb:1059.3817'
p395
aS'urn:cts:cwkb:1059.3791'
p396
aS'urn:cts:cwkb:1059.3797'
p397
aS'urn:cts:cwkb:1059.3823'
p398
aS'urn:cts:cwkb:1059.3792'
p399
aS'urn:cts:cwkb:1059.3814'
p400
aS'urn:cts:cwkb:1059.3818'
p401
aS'urn:cts:cwkb:1059.3789'
p402
aS'urn:cts:cwkb:1060.3829'
p403
aS'urn:cts:cwkb:1060.3833'
p404
aS'urn:cts:cwkb:1060.3831'
p405
aS'urn:cts:cwkb:1060.3834'
p406
aS'urn:cts:cwkb:1060.3832'
p407
aS'urn:cts:cwkb:1060.3830'
p408
aS'urn:cts:cwkb:1060.8160'
p409
aS'urn:cts:cwkb:1060.3835'
p410
aS'urn:cts:cwkb:1061.3836'
p411
aS'urn:cts:cwkb:1062.3839'
p412
aS'urn:cts:cwkb:1062.3838'
p413
aS'urn:cts:cwkb:1062.3837'
p414
aS'urn:cts:cwkb:1062.3841'
p415
aS'urn:cts:cwkb:1062.3840'
p416
aS'urn:cts:cwkb:1063.3845'
p417
aS'urn:cts:cwkb:1063.3843'
p418
aS'urn:cts:cwkb:1063.3846'
p419
aS'urn:cts:cwkb:1063.3844'
p420
aS'urn:cts:cwkb:1063.3847'
p421
aS'urn:cts:cwkb:1063.3842'
p422
aS'urn:cts:cwkb:1064.3848'
p423
aS'urn:cts:cwkb:1065.3849'
p424
aS'urn:cts:cwkb:1066.3850'
p425
aS'urn:cts:cwkb:1067.3851'
p426
aS'urn:cts:cwkb:1067.8149'
p427
aS'urn:cts:greekLit:tlg2046.tlg001'
p428
aS'urn:cts:cwkb:1069.3853'
p429
aS'urn:cts:cwkb:1070.3854'
p430
aS'urn:cts:cwkb:1070.8133'
p431
aS'urn:cts:cwkb:1071.3857'
p432
aS'urn:cts:cwkb:1071.3861'
p433
aS'urn:cts:cwkb:1071.3856'
p434
aS'urn:cts:cwkb:1071.3860'
p435
aS'urn:cts:cwkb:1071.9187'
p436
aS'urn:cts:cwkb:1071.3859'
p437
aS'urn:cts:cwkb:1071.3862'
p438
aS'urn:cts:cwkb:1071.3858'
p439
aS'urn:cts:cwkb:1072.3863'
p440
aS'urn:cts:cwkb:1073.3864'
p441
aS'urn:cts:cwkb:1074.3865'
p442
aS'urn:cts:cwkb:1074.4596'
p443
aS'urn:cts:cwkb:1075.3866'
p444
aS'urn:cts:cwkb:1076.3867'
p445
aS'urn:cts:cwkb:1076.8127'
p446
aS'urn:cts:cwkb:1077.3868'
p447
aS'urn:cts:cwkb:1078.3869'
p448
aS'urn:cts:cwkb:1079.3871'
p449
aS'urn:cts:cwkb:1079.3870'
p450
aS'urn:cts:cwkb:1080.3878'
p451
aS'urn:cts:cwkb:1080.3877'
p452
aS'urn:cts:cwkb:1080.3875'
p453
aS'urn:cts:cwkb:1080.3879'
p454
aS'urn:cts:cwkb:1080.3881'
p455
aS'urn:cts:cwkb:1080.3876'
p456
aS'urn:cts:cwkb:1080.3874'
p457
aS'urn:cts:cwkb:1080.3873'
p458
aS'urn:cts:cwkb:1080.3880'
p459
aS'urn:cts:cwkb:1080.3872'
p460
aS'urn:cts:cwkb:1081.3882'
p461
aS'urn:cts:cwkb:1082.3883'
p462
aS'urn:cts:cwkb:1083.3884'
p463
aS'urn:cts:cwkb:1083.3885'
p464
aS'urn:cts:cwkb:1084.3887'
p465
aS'urn:cts:cwkb:1084.3888'
p466
aS'urn:cts:cwkb:1084.3889'
p467
aS'urn:cts:cwkb:1084.3886'
p468
aS'urn:cts:cwkb:1085.3890'
p469
aS'urn:cts:cwkb:1085.8033'
p470
aS'urn:cts:cwkb:1086.3891'
p471
aS'urn:cts:cwkb:1088.3893'
p472
aS'urn:cts:cwkb:1089.3895'
p473
aS'urn:cts:cwkb:1089.3894'
p474
aS'urn:cts:greekLit:tlg0011.tlg003'
p475
aS'urn:cts:greekLit:tlg0011.tlg007'
p476
aS'urn:cts:greekLit:tlg0011.tlg002'
p477
aS'urn:cts:greekLit:tlg0011.tlg004'
p478
aS'urn:cts:greekLit:tlg0011.tlg005'
p479
aS'urn:cts:greekLit:tlg0011.tlg006'
p480
aS'urn:cts:greekLit:tlg0011.tlg001'
p481
aS'urn:cts:cwkb:1091.3906'
p482
aS'urn:cts:cwkb:1091.3905'
p483
aS'urn:cts:cwkb:1091.3904'
p484
aS'urn:cts:cwkb:1091.3903'
p485
aS'urn:cts:cwkb:1092.4500'
p486
aS'urn:cts:cwkb:1092.3909'
p487
aS'urn:cts:cwkb:1092.3908'
p488
aS'urn:cts:cwkb:1092.3907'
p489
aS'urn:cts:greekLit:tlg0099.tlg001'
p490
aS'urn:cts:cwkb:1093.8131'
p491
aS'urn:cts:cwkb:1094.3921'
p492
aS'urn:cts:cwkb:1094.3914'
p493
aS'urn:cts:cwkb:1094.3916'
p494
aS'urn:cts:cwkb:1094.3918'
p495
aS'urn:cts:cwkb:1094.3913'
p496
aS'urn:cts:cwkb:1094.3915'
p497
aS'urn:cts:cwkb:1094.3917'
p498
aS'urn:cts:cwkb:1094.3919'
p499
aS'urn:cts:cwkb:1094.3912'
p500
aS'urn:cts:cwkb:1094.3920'
p501
aS'urn:cts:cwkb:1094.3911'
p502
aS'urn:cts:cwkb:1095.3923'
p503
aS'urn:cts:cwkb:1095.3922'
p504
aS'urn:cts:cwkb:1096.3924'
p505
aS'urn:cts:cwkb:1097.3926'
p506
aS'urn:cts:cwkb:1097.3925'
p507
aS'urn:cts:cwkb:1098.3927'
p508
aS'urn:cts:cwkb:1099.3928'
p509
aS'urn:cts:cwkb:1100.5181'
p510
aS'urn:cts:cwkb:1100.5163'
p511
aS'urn:cts:cwkb:1100.5184'
p512
aS'urn:cts:cwkb:1100.5186'
p513
aS'urn:cts:cwkb:1100.5183'
p514
aS'urn:cts:cwkb:1100.5164'
p515
aS'urn:cts:cwkb:1100.4043'
p516
aS'urn:cts:cwkb:1100.5157'
p517
aS'urn:cts:cwkb:1100.5167'
p518
aS'urn:cts:cwkb:1100.5165'
p519
aS'urn:cts:cwkb:1100.5166'
p520
aS'urn:cts:cwkb:1100.3932'
p521
aS'urn:cts:cwkb:1100.3930'
p522
aS'urn:cts:cwkb:1100.5182'
p523
aS'urn:cts:cwkb:1100.5179'
p524
aS'urn:cts:cwkb:1100.5161'
p525
aS'urn:cts:cwkb:1100.5170'
p526
aS'urn:cts:cwkb:1100.5158'
p527
aS'urn:cts:cwkb:1100.5160'
p528
aS'urn:cts:cwkb:1100.3929'
p529
aS'urn:cts:cwkb:1100.5188'
p530
aS'urn:cts:cwkb:1100.5169'
p531
aS'urn:cts:cwkb:1100.5159'
p532
aS'urn:cts:cwkb:1100.5156'
p533
aS'urn:cts:cwkb:1100.3931'
p534
aS'urn:cts:cwkb:1100.5177'
p535
aS'urn:cts:cwkb:1100.5162'
p536
aS'urn:cts:cwkb:1100.5174'
p537
aS'urn:cts:cwkb:1100.5180'
p538
aS'urn:cts:cwkb:1100.5173'
p539
aS'urn:cts:cwkb:1100.5175'
p540
aS'urn:cts:cwkb:1100.5185'
p541
aS'urn:cts:cwkb:1100.5171'
p542
aS'urn:cts:cwkb:1100.5154'
p543
aS'urn:cts:cwkb:1100.5168'
p544
aS'urn:cts:cwkb:1100.5155'
p545
aS'urn:cts:cwkb:1100.5172'
p546
aS'urn:cts:cwkb:1100.5178'
p547
aS'urn:cts:cwkb:1100.5187'
p548
aS'urn:cts:cwkb:1100.5176'
p549
aS'urn:cts:cwkb:1101.3933'
p550
aS'urn:cts:greekLit:tlg0005.tlg001'
p551
aS'urn:cts:cwkb:1102.3935'
p552
aS'urn:cts:greekLit:tlg0005.tlg002'
p553
aS'urn:cts:cwkb:1103.3955'
p554
aS'urn:cts:cwkb:1103.3938'
p555
aS'urn:cts:cwkb:1103.3950'
p556
aS'urn:cts:cwkb:1103.3941'
p557
aS'urn:cts:cwkb:1103.3939'
p558
aS'urn:cts:cwkb:1103.3937'
p559
aS'urn:cts:cwkb:1103.3957'
p560
aS'urn:cts:cwkb:1103.3954'
p561
aS'urn:cts:cwkb:1103.3942'
p562
aS'urn:cts:cwkb:1103.3949'
p563
aS'urn:cts:cwkb:1103.3953'
p564
aS'urn:cts:cwkb:1103.3945'
p565
aS'urn:cts:cwkb:1103.3948'
p566
aS'urn:cts:cwkb:1103.3946'
p567
aS'urn:cts:cwkb:1103.3943'
p568
aS'urn:cts:cwkb:1103.3952'
p569
aS'urn:cts:cwkb:1103.3944'
p570
aS'urn:cts:cwkb:1103.3947'
p571
aS'urn:cts:cwkb:1103.3936'
p572
aS'urn:cts:cwkb:1103.3951'
p573
aS'urn:cts:cwkb:1103.3940'
p574
aS'urn:cts:cwkb:1103.3956'
p575
aS'urn:cts:cwkb:1104.3958'
p576
aS'urn:cts:cwkb:1105.3959'
p577
aS'urn:cts:cwkb:1105.3960'
p578
aS'urn:cts:cwkb:1106.3963'
p579
aS'urn:cts:cwkb:1106.3962'
p580
aS'urn:cts:cwkb:1106.3965'
p581
aS'urn:cts:cwkb:1106.3964'
p582
aS'urn:cts:cwkb:1106.3961'
p583
aS'urn:cts:cwkb:1107.3968'
p584
aS'urn:cts:cwkb:1107.3971'
p585
aS'urn:cts:cwkb:1107.3967'
p586
aS'urn:cts:cwkb:1107.3966'
p587
aS'urn:cts:cwkb:1108.3974'
p588
aS'urn:cts:cwkb:1108.3975'
p589
aS'urn:cts:cwkb:1108.3973'
p590
aS'urn:cts:cwkb:1110.3978'
p591
aS'urn:cts:cwkb:1111.3982'
p592
aS'urn:cts:cwkb:1111.3979'
p593
aS'urn:cts:cwkb:1112.3983'
p594
aS'urn:cts:cwkb:1113.3985'
p595
aS'urn:cts:cwkb:1113.4440'
p596
aS'urn:cts:cwkb:1113.3993'
p597
aS'urn:cts:cwkb:1113.3986'
p598
aS'urn:cts:greekLit:tlg0093.tlg009'
p599
aS'urn:cts:cwkb:1113.3990'
p600
aS'urn:cts:cwkb:1113.3992'
p601
aS'urn:cts:cwkb:1113.3988'
p602
aS'urn:cts:cwkb:1113.4441'
p603
aS'urn:cts:cwkb:1113.3991'
p604
aS'urn:cts:cwkb:1113.3989'
p605
aS'urn:cts:cwkb:1113.3987'
p606
aS'urn:cts:cwkb:1114.3995'
p607
aS'urn:cts:cwkb:1114.3996'
p608
aS'urn:cts:cwkb:1114.3994'
p609
aS'urn:cts:cwkb:1115.3997'
p610
aS'urn:cts:greekLit:tlg0003.tlg001'
p611
aS'urn:cts:cwkb:1116.3999'
p612
aS'urn:cts:cwkb:1117.4000'
p613
aS'urn:cts:cwkb:1118.8288'
p614
aS'urn:cts:cwkb:1118.4001'
p615
aS'urn:cts:cwkb:1119.7951'
p616
aS'urn:cts:cwkb:1119.4002'
p617
aS'urn:cts:cwkb:1120.4003'
p618
aS'urn:cts:cwkb:1121.4005'
p619
aS'urn:cts:cwkb:1121.4004'
p620
aS'urn:cts:cwkb:1122.4006'
p621
aS'urn:cts:cwkb:1123.4007'
p622
aS'urn:cts:cwkb:1124.4008'
p623
aS'urn:cts:cwkb:1125.4009'
p624
aS'urn:cts:cwkb:1125.5192'
p625
aS'urn:cts:cwkb:1126.4010'
p626
aS'urn:cts:cwkb:1127.4011'
p627
aS'urn:cts:cwkb:1127.4012'
p628
aS'urn:cts:cwkb:1127.4013'
p629
aS'urn:cts:cwkb:1128.4014'
p630
aS'urn:cts:greekLit:tlg0032.tlg012'
p631
aS'urn:cts:greekLit:tlg0032.tlg013'
p632
aS'urn:cts:greekLit:tlg0032.tlg010'
p633
aS'urn:cts:greekLit:tlg0032.tlg004'
p634
aS'urn:cts:greekLit:tlg0032.tlg006'
p635
aS'urn:cts:greekLit:tlg0032.tlg008'
p636
aS'urn:cts:greekLit:tlg0032.tlg015'
p637
aS'urn:cts:greekLit:tlg0032.tlg011'
p638
aS'urn:cts:greekLit:tlg0032.tlg009'
p639
aS'urn:cts:greekLit:tlg0032.tlg005'
p640
aS'urn:cts:greekLit:tlg0032.tlg003'
p641
aS'urn:cts:greekLit:tlg0032.tlg014'
p642
aS'urn:cts:greekLit:tlg0032.tlg007'
p643
aS'urn:cts:greekLit:tlg0032.tlg002'
p644
aS'urn:cts:greekLit:tlg0032.tlg001'
p645
aS'urn:cts:cwkb:1130.4033'
p646
aS'urn:cts:cwkb:1130.4031'
p647
aS'urn:cts:cwkb:1130.4032'
p648
aS'urn:cts:cwkb:1131.4034'
p649
aS'urn:cts:cwkb:1132.4035'
p650
aS'urn:cts:cwkb:1133.4036'
p651
aS'urn:cts:cwkb:1134.4037'
p652
aS'urn:cts:cwkb:1136.1473'
p653
aS'urn:cts:cwkb:1136.1474'
p654
aS'urn:cts:cwkb:1137.1441'
p655
aS'urn:cts:greekLit:tlg0532.tlg001'
p656
aS'urn:cts:cwkb:1139.743'
p657
aS'urn:cts:cwkb:1143.809'
p658
aS'urn:cts:cwkb:1144.838'
p659
aS'urn:cts:cwkb:1145.839'
p660
aS'urn:cts:cwkb:1146.840'
p661
aS'urn:cts:cwkb:1147.841'
p662
aS'urn:cts:cwkb:1148.951'
p663
aS'urn:cts:cwkb:1149.952'
p664
aS'urn:cts:cwkb:1150.953'
p665
aS'urn:cts:cwkb:1151.1084'
p666
aS'urn:cts:cwkb:1152.1233'
p667
aS'urn:cts:cwkb:1153.1234'
p668
aS'urn:cts:cwkb:1155.1243'
p669
aS'urn:cts:cwkb:1156.1252'
p670
aS'urn:cts:cwkb:1157.1335'
p671
aS'urn:cts:cwkb:1158.1418'
p672
aS'urn:cts:cwkb:1160.7973'
p673
aS'urn:cts:cwkb:1160.1483'
p674
aS'urn:cts:cwkb:1161.1481'
p675
aS'urn:cts:cwkb:1162.1490'
p676
aS'urn:cts:cwkb:1163.1493'
p677
aS'urn:cts:cwkb:1165.1547'
p678
aS'urn:cts:cwkb:1166.1549'
p679
aS'urn:cts:cwkb:1167.1548'
p680
aS'urn:cts:cwkb:1167.1545'
p681
aS'urn:cts:cwkb:1167.1546'
p682
aS'urn:cts:cwkb:1168.1550'
p683
aS'urn:cts:cwkb:1169.1552'
p684
aS'urn:cts:cwkb:1170.1551'
p685
aS'urn:cts:cwkb:1171.1607'
p686
aS'urn:cts:cwkb:1171.1605'
p687
aS'urn:cts:cwkb:1171.8151'
p688
aS'urn:cts:cwkb:1171.1609'
p689
aS'urn:cts:cwkb:1171.1604'
p690
aS'urn:cts:cwkb:1171.9134'
p691
aS'urn:cts:cwkb:1171.1608'
p692
aS'urn:cts:cwkb:1172.8125'
p693
aS'urn:cts:greekLit:tlg0008.tlg001'
p694
aS'urn:cts:cwkb:1172.8007'
p695
aS'urn:cts:cwkb:1173.1776'
p696
aS'urn:cts:cwkb:1174.2085'
p697
aS'urn:cts:cwkb:1175.2668'
p698
aS'urn:cts:cwkb:1176.2684'
p699
aS'urn:cts:cwkb:1177.2839'
p700
aS'urn:cts:cwkb:1178.3315'
p701
aS'urn:cts:greekLit:tlg0023.tlg001'
p702
aS'urn:cts:cwkb:1180.3529'
p703
aS'urn:cts:cwkb:1181.3824'
p704
aS'urn:cts:cwkb:1181.3803'
p705
aS'urn:cts:cwkb:1181.3805'
p706
aS'urn:cts:cwkb:1181.3811'
p707
aS'urn:cts:cwkb:1181.3826'
p708
aS'urn:cts:cwkb:1181.3806'
p709
aS'urn:cts:cwkb:1181.3800'
p710
aS'urn:cts:cwkb:1181.3810'
p711
aS'urn:cts:cwkb:1181.3804'
p712
aS'urn:cts:cwkb:1181.3821'
p713
aS'urn:cts:cwkb:1181.3809'
p714
aS'urn:cts:cwkb:1181.3801'
p715
aS'urn:cts:cwkb:1181.3828'
p716
aS'urn:cts:cwkb:1181.3807'
p717
aS'urn:cts:cwkb:1181.3825'
p718
aS'urn:cts:cwkb:1181.3795'
p719
aS'urn:cts:cwkb:1181.3802'
p720
aS'urn:cts:cwkb:1181.3790'
p721
aS'urn:cts:cwkb:1181.3799'
p722
aS'urn:cts:cwkb:1181.3808'
p723
aS'urn:cts:cwkb:1182.3855'
p724
aS'urn:cts:cwkb:1183.3972'
p725
aS'urn:cts:cwkb:1183.3970'
p726
aS'urn:cts:cwkb:1183.3969'
p727
aS'urn:cts:cwkb:1184.3981'
p728
aS'urn:cts:cwkb:1185.3980'
p729
aS'urn:cts:cwkb:1186.4024'
p730
aS'urn:cts:cwkb:1313.4322'
p731
aS'urn:cts:cwkb:1314.4323'
p732
aS'urn:cts:cwkb:1314.9444'
p733
aS'urn:cts:cwkb:1314.9446'
p734
aS'urn:cts:cwkb:1314.9448'
p735
aS'urn:cts:cwkb:1314.8977'
p736
aS'urn:cts:cwkb:1314.9447'
p737
aS'urn:cts:cwkb:1315.4334'
p738
aS'urn:cts:cwkb:1315.4336'
p739
aS'urn:cts:cwkb:1315.4326'
p740
aS'urn:cts:cwkb:1315.4324'
p741
aS'urn:cts:cwkb:1315.4330'
p742
aS'urn:cts:cwkb:1315.4327'
p743
aS'urn:cts:cwkb:1315.4328'
p744
aS'urn:cts:cwkb:1315.4331'
p745
aS'urn:cts:cwkb:1315.4332'
p746
aS'urn:cts:cwkb:1315.4335'
p747
aS'urn:cts:cwkb:1315.4329'
p748
aS'urn:cts:cwkb:1315.4325'
p749
aS'urn:cts:cwkb:1315.4333'
p750
aS'urn:cts:cwkb:1316.4337'
p751
aS'urn:cts:cwkb:1317.8807'
p752
aS'urn:cts:cwkb:1317.4338'
p753
aS'urn:cts:cwkb:1318.8947'
p754
aS'urn:cts:cwkb:1318.4340'
p755
aS'urn:cts:cwkb:1318.8949'
p756
aS'urn:cts:cwkb:1318.8946'
p757
aS'urn:cts:cwkb:1318.4339'
p758
aS'urn:cts:cwkb:1318.8948'
p759
aS'urn:cts:cwkb:1319.4341'
p760
aS'urn:cts:cwkb:1319.4342'
p761
aS'urn:cts:cwkb:1320.4343'
p762
aS'urn:cts:cwkb:1321.4344'
p763
aS'urn:cts:cwkb:1322.4345'
p764
aS'urn:cts:cwkb:1323.8709'
p765
aS'urn:cts:cwkb:1323.4346'
p766
aS'urn:cts:cwkb:1324.8399'
p767
aS'urn:cts:cwkb:1324.4347'
p768
aS'urn:cts:cwkb:1325.4349'
p769
aS'urn:cts:cwkb:1326.8811'
p770
aS'urn:cts:cwkb:1326.8809'
p771
aS'urn:cts:cwkb:1326.4350'
p772
aS'urn:cts:cwkb:1326.8812'
p773
aS'urn:cts:cwkb:1326.8810'
p774
aS'urn:cts:cwkb:1327.4351'
p775
aS'urn:cts:cwkb:1327.9568'
p776
aS'urn:cts:cwkb:1327.8601'
p777
aS'urn:cts:cwkb:1327.8600'
p778
aS'urn:cts:cwkb:1328.4352'
p779
aS'urn:cts:cwkb:1329.8037'
p780
aS'urn:cts:cwkb:1329.9090'
p781
aS'urn:cts:cwkb:1329.8919'
p782
aS'urn:cts:cwkb:1329.8921'
p783
aS'urn:cts:cwkb:1329.4353'
p784
aS'urn:cts:cwkb:1329.9089'
p785
aS'urn:cts:cwkb:1329.8917'
p786
aS'urn:cts:cwkb:1329.8278'
p787
aS'urn:cts:cwkb:1329.8269'
p788
aS'urn:cts:cwkb:1329.8914'
p789
aS'urn:cts:cwkb:1329.8916'
p790
aS'urn:cts:cwkb:1329.8918'
p791
aS'urn:cts:cwkb:1329.9071'
p792
aS'urn:cts:cwkb:1329.8920'
p793
aS'urn:cts:cwkb:1329.8915'
p794
aS'urn:cts:cwkb:1329.8038'
p795
aS'urn:cts:cwkb:1329.9088'
p796
aS'urn:cts:cwkb:1330.4355'
p797
aS'urn:cts:cwkb:1330.4354'
p798
aS'urn:cts:cwkb:1331.4357'
p799
aS'urn:cts:cwkb:1331.4356'
p800
aS'urn:cts:cwkb:1333.4359'
p801
aS'urn:cts:cwkb:1334.4360'
p802
aS'urn:cts:cwkb:1335.4361'
p803
aS'urn:cts:cwkb:1336.4362'
p804
aS'urn:cts:cwkb:1337.4363'
p805
aS'urn:cts:cwkb:1338.4364'
p806
aS'urn:cts:cwkb:1339.4365'
p807
aS'urn:cts:cwkb:1340.4366'
p808
aS'urn:cts:cwkb:1341.4367'
p809
aS'urn:cts:cwkb:1342.4368'
p810
aS'urn:cts:cwkb:1343.4369'
p811
aS'urn:cts:cwkb:1344.4370'
p812
aS'urn:cts:cwkb:1345.4371'
p813
aS'urn:cts:cwkb:1346.4372'
p814
aS'urn:cts:cwkb:1348.4374'
p815
aS'urn:cts:cwkb:1351.4377'
p816
aS'urn:cts:cwkb:1353.4380'
p817
aS'urn:cts:cwkb:1353.4381'
p818
aS'urn:cts:cwkb:1353.9202'
p819
aS'urn:cts:cwkb:1355.4382'
p820
aS'urn:cts:cwkb:1357.4384'
p821
aS'urn:cts:cwkb:1358.4386'
p822
aS'urn:cts:cwkb:1359.8092'
p823
aS'urn:cts:cwkb:1359.4393'
p824
aS'urn:cts:cwkb:1360.4394'
p825
aS'urn:cts:cwkb:1362.4402'
p826
aS'urn:cts:cwkb:1362.4398'
p827
aS'urn:cts:cwkb:1362.4397'
p828
aS'urn:cts:cwkb:1362.4395'
p829
aS'urn:cts:cwkb:1362.4408'
p830
aS'urn:cts:cwkb:1362.4403'
p831
aS'urn:cts:cwkb:1362.4409'
p832
aS'urn:cts:cwkb:1362.4399'
p833
aS'urn:cts:cwkb:1362.4404'
p834
aS'urn:cts:cwkb:1362.4396'
p835
aS'urn:cts:cwkb:1362.4400'
p836
aS'urn:cts:cwkb:1362.4407'
p837
aS'urn:cts:cwkb:1362.4405'
p838
aS'urn:cts:cwkb:1362.4401'
p839
aS'urn:cts:cwkb:1362.4406'
p840
aS'urn:cts:cwkb:1363.4411'
p841
aS'urn:cts:cwkb:1363.8078'
p842
aS'urn:cts:cwkb:1363.8079'
p843
aS'urn:cts:cwkb:1363.8104'
p844
aS'urn:cts:cwkb:1363.4410'
p845
aS'urn:cts:cwkb:1364.4412'
p846
aS'urn:cts:cwkb:1365.4413'
p847
aS'urn:cts:cwkb:1366.4414'
p848
aS'urn:cts:cwkb:1367.4415'
p849
aS'urn:cts:cwkb:1368.4416'
p850
aS'urn:cts:cwkb:1368.4417'
p851
aS'urn:cts:cwkb:1368.9529'
p852
aS'urn:cts:cwkb:1369.4418'
p853
aS'urn:cts:cwkb:1370.4419'
p854
aS'urn:cts:cwkb:1371.4420'
p855
aS'urn:cts:cwkb:1371.4421'
p856
aS'urn:cts:cwkb:1372.3977'
p857
aS'urn:cts:cwkb:1372.4422'
p858
aS'urn:cts:cwkb:1372.3976'
p859
aS'urn:cts:cwkb:1376.8045'
p860
aS'urn:cts:greekLit:tlg0094.tlg001'
p861
aS'urn:cts:greekLit:tlg0094.tlg003'
p862
aS'urn:cts:greekLit:tlg0094.tlg002'
p863
aS'urn:cts:cwkb:1377.4445'
p864
aS'urn:cts:cwkb:1377.8132'
p865
aS'urn:cts:cwkb:1378.4446'
p866
aS'urn:cts:cwkb:1379.8136'
p867
aS'urn:cts:cwkb:1379.4450'
p868
aS'urn:cts:cwkb:1379.8336'
p869
aS'urn:cts:cwkb:1380.4451'
p870
aS'urn:cts:cwkb:1381.4452'
p871
aS'urn:cts:cwkb:1381.8139'
p872
aS'urn:cts:cwkb:1382.4453'
p873
aS'urn:cts:cwkb:1383.4454'
p874
aS'urn:cts:cwkb:1384.4455'
p875
aS'urn:cts:cwkb:1385.4457'
p876
aS'urn:cts:cwkb:1386.4458'
p877
aS'urn:cts:cwkb:1387.4459'
p878
aS'urn:cts:cwkb:1388.4460'
p879
aS'urn:cts:cwkb:1389.4461'
p880
aS'urn:cts:cwkb:1390.4462'
p881
aS'urn:cts:cwkb:1391.4463'
p882
aS'urn:cts:cwkb:1393.4469'
p883
aS'urn:cts:greekLit:tlg0613.tlg001'
p884
aS'urn:cts:cwkb:1395.4471'
p885
aS'urn:cts:greekLit:tlg0652.tlg001'
p886
aS'urn:cts:cwkb:1397.4476'
p887
aS'urn:cts:cwkb:1398.4477'
p888
aS'urn:cts:cwkb:1399.4479'
p889
aS'urn:cts:cwkb:1400.4488'
p890
aS'urn:cts:cwkb:1400.4486'
p891
aS'urn:cts:cwkb:1400.4491'
p892
aS'urn:cts:cwkb:1400.4490'
p893
aS'urn:cts:cwkb:1400.4483'
p894
aS'urn:cts:cwkb:1400.4481'
p895
aS'urn:cts:cwkb:1400.4484'
p896
aS'urn:cts:cwkb:1400.4482'
p897
aS'urn:cts:cwkb:1400.4489'
p898
aS'urn:cts:cwkb:1400.4480'
p899
aS'urn:cts:cwkb:1400.4487'
p900
aS'urn:cts:cwkb:1400.4485'
p901
aS'urn:cts:cwkb:1401.9226'
p902
aS'urn:cts:cwkb:1401.4492'
p903
aS'urn:cts:cwkb:1401.9345'
p904
aS'urn:cts:cwkb:1401.8221'
p905
aS'urn:cts:cwkb:1402.4493'
p906
aS'urn:cts:cwkb:1403.4494'
p907
aS'urn:cts:cwkb:1404.4495'
p908
aS'urn:cts:cwkb:1405.4496'
p909
aS'urn:cts:cwkb:1406.8029'
p910
aS'urn:cts:cwkb:1406.7958'
p911
aS'urn:cts:cwkb:1406.5252'
p912
aS'urn:cts:cwkb:1406.4497'
p913
aS'urn:cts:cwkb:1406.5253'
p914
aS'urn:cts:cwkb:1407.8042'
p915
aS'urn:cts:cwkb:1407.4498'
p916
aS'urn:cts:cwkb:1408.4499'
p917
aS'urn:cts:cwkb:1409.4501'
p918
aS'urn:cts:cwkb:1410.4503'
p919
aS'urn:cts:cwkb:1410.4504'
p920
aS'urn:cts:cwkb:1410.4502'
p921
aS'urn:cts:cwkb:1412.4521'
p922
aS'urn:cts:cwkb:1413.4522'
p923
aS'urn:cts:cwkb:1414.4524'
p924
aS'urn:cts:cwkb:1415.8203'
p925
aS'urn:cts:cwkb:1416.4526'
p926
aS'urn:cts:cwkb:1416.5189'
p927
aS'urn:cts:cwkb:1417.4527'
p928
aS'urn:cts:cwkb:1417.4528'
p929
aS'urn:cts:cwkb:1417.4529'
p930
aS'urn:cts:cwkb:1418.4530'
p931
aS'urn:cts:cwkb:1419.4536'
p932
aS'urn:cts:cwkb:1419.4534'
p933
aS'urn:cts:cwkb:1419.4533'
p934
aS'urn:cts:cwkb:1419.4532'
p935
aS'urn:cts:cwkb:1419.4538'
p936
aS'urn:cts:cwkb:1419.4537'
p937
aS'urn:cts:cwkb:1419.4535'
p938
aS'urn:cts:cwkb:1419.4539'
p939
aS'urn:cts:cwkb:1420.4540'
p940
aS'urn:cts:cwkb:1421.4550'
p941
aS'urn:cts:cwkb:1421.4544'
p942
aS'urn:cts:cwkb:1421.4552'
p943
aS'urn:cts:cwkb:1421.8005'
p944
aS'urn:cts:cwkb:1421.4541'
p945
aS'urn:cts:cwkb:1421.8267'
p946
aS'urn:cts:cwkb:1421.4547'
p947
aS'urn:cts:cwkb:1421.4545'
p948
aS'urn:cts:cwkb:1421.4542'
p949
aS'urn:cts:cwkb:1421.4549'
p950
aS'urn:cts:cwkb:1421.8114'
p951
aS'urn:cts:cwkb:1421.4543'
p952
aS'urn:cts:cwkb:1421.4548'
p953
aS'urn:cts:cwkb:1421.4551'
p954
aS'urn:cts:cwkb:1421.8159'
p955
aS'urn:cts:cwkb:1421.4546'
p956
aS'urn:cts:cwkb:1422.4553'
p957
aS'urn:cts:cwkb:1423.4554'
p958
aS'urn:cts:cwkb:1425.4558'
p959
aS'urn:cts:cwkb:1425.4555'
p960
aS'urn:cts:cwkb:1425.4557'
p961
aS'urn:cts:cwkb:1425.4556'
p962
aS'urn:cts:cwkb:1425.4559'
p963
aS'urn:cts:cwkb:1426.8344'
p964
aS'urn:cts:cwkb:1426.8346'
p965
aS'urn:cts:cwkb:1426.8348'
p966
aS'urn:cts:cwkb:1426.8343'
p967
aS'urn:cts:cwkb:1426.8345'
p968
aS'urn:cts:cwkb:1426.8340'
p969
aS'urn:cts:cwkb:1426.8349'
p970
aS'urn:cts:cwkb:1426.8342'
p971
aS'urn:cts:cwkb:1426.8044'
p972
aS'urn:cts:cwkb:1426.8341'
p973
aS'urn:cts:cwkb:1426.7938'
p974
aS'urn:cts:cwkb:1426.8004'
p975
aS'urn:cts:cwkb:1426.4560'
p976
aS'urn:cts:cwkb:1427.4562'
p977
aS'urn:cts:cwkb:1427.4567'
p978
aS'urn:cts:cwkb:1427.4561'
p979
aS'urn:cts:cwkb:1427.4563'
p980
aS'urn:cts:cwkb:1427.4564'
p981
aS'urn:cts:cwkb:1427.4566'
p982
aS'urn:cts:cwkb:1427.4565'
p983
aS'urn:cts:cwkb:1428.4568'
p984
aS'urn:cts:greekLit:tlg4029.tlg001'
p985
aS'urn:cts:cwkb:1429.4571'
p986
aS'urn:cts:greekLit:tlg4029.tlg002'
p987
aS'urn:cts:cwkb:1430.4574'
p988
aS'urn:cts:cwkb:1430.4572'
p989
aS'urn:cts:cwkb:1430.4577'
p990
aS'urn:cts:cwkb:1430.4575'
p991
aS'urn:cts:cwkb:1430.4576'
p992
aS'urn:cts:cwkb:1430.8020'
p993
aS'urn:cts:cwkb:1430.4573'
p994
aS'urn:cts:cwkb:1431.4578'
p995
aS'urn:cts:cwkb:1432.4580'
p996
aS'urn:cts:cwkb:1433.4581'
p997
aS'urn:cts:cwkb:1441.5190'
p998
aS'urn:cts:cwkb:1442.5193'
p999
aS'urn:cts:cwkb:1443.5194'
p1000
aS'urn:cts:cwkb:1444.5196'
p1001
aS'urn:cts:cwkb:1444.5195'
p1002
aS'urn:cts:greekLit:tlg0284.tlg042'
p1003
aS'urn:cts:greekLit:tlg0284.tlg040'
p1004
aS'urn:cts:greekLit:tlg0284.tlg031'
p1005
aS'urn:cts:greekLit:tlg0284.tlg047'
p1006
aS'urn:cts:greekLit:tlg0284.tlg002'
p1007
aS'urn:cts:greekLit:tlg0284.tlg045'
p1008
aS'urn:cts:greekLit:tlg0284.tlg048'
p1009
aS'urn:cts:greekLit:tlg0284.tlg037'
p1010
aS'urn:cts:greekLit:tlg0284.tlg008'
p1011
aS'urn:cts:greekLit:tlg0284.tlg016'
p1012
aS'urn:cts:greekLit:tlg0284.tlg001'
p1013
aS'urn:cts:greekLit:tlg0284.tlg038'
p1014
aS'urn:cts:greekLit:tlg0284.tlg029'
p1015
aS'urn:cts:greekLit:tlg0284.tlg041'
p1016
aS'urn:cts:greekLit:tlg0284.tlg023'
p1017
aS'urn:cts:greekLit:tlg0284.tlg033'
p1018
aS'urn:cts:greekLit:tlg0284.tlg028'
p1019
aS'urn:cts:greekLit:tlg0284.tlg049'
p1020
aS'urn:cts:greekLit:tlg0284.tlg026'
p1021
aS'urn:cts:greekLit:tlg0284.tlg050'
p1022
aS'urn:cts:greekLit:tlg0284.tlg054'
p1023
aS'urn:cts:greekLit:tlg0284.tlg014'
p1024
aS'urn:cts:greekLit:tlg0284.tlg056'
p1025
aS'urn:cts:greekLit:tlg0284.tlg017'
p1026
aS'urn:cts:greekLit:tlg0284.tlg011'
p1027
aS'urn:cts:greekLit:tlg0284.tlg034'
p1028
aS'urn:cts:greekLit:tlg0284.tlg004'
p1029
aS'urn:cts:greekLit:tlg0284.tlg007'
p1030
aS'urn:cts:greekLit:tlg0284.tlg022'
p1031
aS'urn:cts:greekLit:tlg0284.tlg052'
p1032
aS'urn:cts:greekLit:tlg0284.tlg024'
p1033
aS'urn:cts:greekLit:tlg0284.tlg010'
p1034
aS'urn:cts:greekLit:tlg0284.tlg025'
p1035
aS'urn:cts:greekLit:tlg0284.tlg053'
p1036
aS'urn:cts:greekLit:tlg0284.tlg051'
p1037
aS'urn:cts:greekLit:tlg0284.tlg005'
p1038
aS'urn:cts:greekLit:tlg0284.tlg032'
p1039
aS'urn:cts:greekLit:tlg0284.tlg035'
p1040
aS'urn:cts:greekLit:tlg0284.tlg006'
p1041
aS'urn:cts:greekLit:tlg0284.tlg027'
p1042
aS'urn:cts:greekLit:tlg0284.tlg013'
p1043
aS'urn:cts:greekLit:tlg0284.tlg046'
p1044
aS'urn:cts:greekLit:tlg0284.tlg044'
p1045
aS'urn:cts:greekLit:tlg0284.tlg012'
p1046
aS'urn:cts:greekLit:tlg0284.tlg015'
p1047
aS'urn:cts:greekLit:tlg0284.tlg055'
p1048
aS'urn:cts:greekLit:tlg0284.tlg003'
p1049
aS'urn:cts:greekLit:tlg0284.tlg020'
p1050
aS'urn:cts:greekLit:tlg0284.tlg030'
p1051
aS'urn:cts:greekLit:tlg0284.tlg019'
p1052
aS'urn:cts:greekLit:tlg0284.tlg021'
p1053
aS'urn:cts:greekLit:tlg0284.tlg036'
p1054
aS'urn:cts:greekLit:tlg0284.tlg043'
p1055
aS'urn:cts:greekLit:tlg0284.tlg009'
p1056
aS'urn:cts:greekLit:tlg0284.tlg018'
p1057
aS'urn:cts:greekLit:tlg0284.tlg039'
p1058
aS'urn:cts:cwkb:2384.7936'
p1059
aS'urn:cts:cwkb:2385.7937'
p1060
aS'urn:cts:cwkb:2385.9556'
p1061
aS'urn:cts:cwkb:2386.8403'
p1062
aS'urn:cts:cwkb:2386.8453'
p1063
aS'urn:cts:cwkb:2386.8456'
p1064
aS'urn:cts:cwkb:2386.8480'
p1065
aS'urn:cts:cwkb:2386.8424'
p1066
aS'urn:cts:cwkb:2386.8405'
p1067
aS'urn:cts:cwkb:2386.8483'
p1068
aS'urn:cts:cwkb:2386.9249'
p1069
aS'urn:cts:cwkb:2386.8441'
p1070
aS'urn:cts:cwkb:2386.8489'
p1071
aS'urn:cts:cwkb:2386.8454'
p1072
aS'urn:cts:cwkb:2386.9290'
p1073
aS'urn:cts:cwkb:2386.8479'
p1074
aS'urn:cts:cwkb:2386.8425'
p1075
aS'urn:cts:cwkb:2386.8422'
p1076
aS'urn:cts:cwkb:2386.8495'
p1077
aS'urn:cts:cwkb:2386.8484'
p1078
aS'urn:cts:cwkb:2386.8500'
p1079
aS'urn:cts:cwkb:2386.8493'
p1080
aS'urn:cts:cwkb:2386.8433'
p1081
aS'urn:cts:cwkb:2386.8416'
p1082
aS'urn:cts:cwkb:2386.8426'
p1083
aS'urn:cts:cwkb:2386.8490'
p1084
aS'urn:cts:cwkb:2386.8419'
p1085
aS'urn:cts:cwkb:2386.8432'
p1086
aS'urn:cts:cwkb:2386.8427'
p1087
aS'urn:cts:cwkb:2386.9355'
p1088
aS'urn:cts:cwkb:2386.8497'
p1089
aS'urn:cts:cwkb:2386.8418'
p1090
aS'urn:cts:cwkb:2386.8465'
p1091
aS'urn:cts:cwkb:2386.8412'
p1092
aS'urn:cts:cwkb:2386.8428'
p1093
aS'urn:cts:cwkb:2386.8496'
p1094
aS'urn:cts:cwkb:2386.8446'
p1095
aS'urn:cts:cwkb:2386.7939'
p1096
aS'urn:cts:cwkb:2386.8463'
p1097
aS'urn:cts:cwkb:2386.8423'
p1098
aS'urn:cts:cwkb:2386.8504'
p1099
aS'urn:cts:cwkb:2386.9291'
p1100
aS'urn:cts:cwkb:2386.8471'
p1101
aS'urn:cts:cwkb:2386.8430'
p1102
aS'urn:cts:cwkb:2386.8408'
p1103
aS'urn:cts:cwkb:2386.8421'
p1104
aS'urn:cts:cwkb:2386.8492'
p1105
aS'urn:cts:cwkb:2386.8440'
p1106
aS'urn:cts:cwkb:2386.8494'
p1107
aS'urn:cts:cwkb:2386.8434'
p1108
aS'urn:cts:cwkb:2386.8476'
p1109
aS'urn:cts:cwkb:2386.8474'
p1110
aS'urn:cts:cwkb:2386.8439'
p1111
aS'urn:cts:cwkb:2386.8444'
p1112
aS'urn:cts:cwkb:2386.8447'
p1113
aS'urn:cts:cwkb:2386.8486'
p1114
aS'urn:cts:cwkb:2386.8413'
p1115
aS'urn:cts:cwkb:2386.8406'
p1116
aS'urn:cts:cwkb:2386.8482'
p1117
aS'urn:cts:cwkb:2386.8477'
p1118
aS'urn:cts:cwkb:2386.8503'
p1119
aS'urn:cts:cwkb:2386.8468'
p1120
aS'urn:cts:cwkb:2386.8409'
p1121
aS'urn:cts:cwkb:2386.8443'
p1122
aS'urn:cts:cwkb:2386.8404'
p1123
aS'urn:cts:cwkb:2386.8457'
p1124
aS'urn:cts:cwkb:2386.8499'
p1125
aS'urn:cts:cwkb:2386.8469'
p1126
aS'urn:cts:cwkb:2386.8478'
p1127
aS'urn:cts:cwkb:2386.8407'
p1128
aS'urn:cts:cwkb:2386.8466'
p1129
aS'urn:cts:cwkb:2386.8415'
p1130
aS'urn:cts:cwkb:2386.9300'
p1131
aS'urn:cts:cwkb:2386.8410'
p1132
aS'urn:cts:cwkb:2386.8491'
p1133
aS'urn:cts:cwkb:2386.8442'
p1134
aS'urn:cts:cwkb:2386.8505'
p1135
aS'urn:cts:cwkb:2386.8411'
p1136
aS'urn:cts:cwkb:2386.8485'
p1137
aS'urn:cts:cwkb:2386.8473'
p1138
aS'urn:cts:cwkb:2386.8450'
p1139
aS'urn:cts:cwkb:2386.8452'
p1140
aS'urn:cts:cwkb:2386.8417'
p1141
aS'urn:cts:cwkb:2386.8501'
p1142
aS'urn:cts:cwkb:2386.8502'
p1143
aS'urn:cts:cwkb:2386.8435'
p1144
aS'urn:cts:cwkb:2386.8414'
p1145
aS'urn:cts:cwkb:2386.8481'
p1146
aS'urn:cts:cwkb:2386.8460'
p1147
aS'urn:cts:cwkb:2386.8429'
p1148
aS'urn:cts:cwkb:2386.8451'
p1149
aS'urn:cts:cwkb:2386.8449'
p1150
aS'urn:cts:cwkb:2386.8475'
p1151
aS'urn:cts:cwkb:2386.8464'
p1152
aS'urn:cts:cwkb:2386.8470'
p1153
aS'urn:cts:cwkb:2386.8487'
p1154
aS'urn:cts:cwkb:2386.8448'
p1155
aS'urn:cts:cwkb:2386.8431'
p1156
aS'urn:cts:cwkb:2386.8488'
p1157
aS'urn:cts:cwkb:2386.8506'
p1158
aS'urn:cts:cwkb:2386.8462'
p1159
aS'urn:cts:cwkb:2386.8498'
p1160
aS'urn:cts:cwkb:2386.8420'
p1161
aS'urn:cts:cwkb:2386.8458'
p1162
aS'urn:cts:cwkb:2386.8472'
p1163
aS'urn:cts:cwkb:2386.8461'
p1164
aS'urn:cts:cwkb:2386.9301'
p1165
aS'urn:cts:cwkb:2386.9289'
p1166
aS'urn:cts:cwkb:2386.8467'
p1167
aS'urn:cts:cwkb:2386.8507'
p1168
aS'urn:cts:cwkb:2386.8445'
p1169
aS'urn:cts:cwkb:2386.8455'
p1170
aS'urn:cts:cwkb:2386.8438'
p1171
aS'urn:cts:cwkb:2386.9292'
p1172
aS'urn:cts:cwkb:2386.8437'
p1173
aS'urn:cts:cwkb:2386.8459'
p1174
aS'urn:cts:cwkb:2386.8508'
p1175
aS'urn:cts:cwkb:2386.8436'
p1176
aS'urn:cts:cwkb:2387.7940'
p1177
aS'urn:cts:cwkb:2388.9416'
p1178
aS'urn:cts:cwkb:2388.8660'
p1179
aS'urn:cts:cwkb:2388.8644'
p1180
aS'urn:cts:cwkb:2388.8672'
p1181
aS'urn:cts:cwkb:2388.8675'
p1182
aS'urn:cts:cwkb:2388.9410'
p1183
aS'urn:cts:cwkb:2388.8639'
p1184
aS'urn:cts:cwkb:2388.8663'
p1185
aS'urn:cts:cwkb:2388.8673'
p1186
aS'urn:cts:cwkb:2388.8641'
p1187
aS'urn:cts:cwkb:2388.9406'
p1188
aS'urn:cts:cwkb:2388.9404'
p1189
aS'urn:cts:cwkb:2388.9395'
p1190
aS'urn:cts:cwkb:2388.8646'
p1191
aS'urn:cts:cwkb:2388.8649'
p1192
aS'urn:cts:cwkb:2388.9412'
p1193
aS'urn:cts:cwkb:2388.8645'
p1194
aS'urn:cts:cwkb:2388.8664'
p1195
aS'urn:cts:cwkb:2388.9398'
p1196
aS'urn:cts:cwkb:2388.8657'
p1197
aS'urn:cts:cwkb:2388.8652'
p1198
aS'urn:cts:cwkb:2388.8680'
p1199
aS'urn:cts:cwkb:2388.8665'
p1200
aS'urn:cts:cwkb:2388.9419'
p1201
aS'urn:cts:cwkb:2388.8653'
p1202
aS'urn:cts:cwkb:2388.9399'
p1203
aS'urn:cts:cwkb:2388.9415'
p1204
aS'urn:cts:cwkb:2388.8677'
p1205
aS'urn:cts:cwkb:2388.8682'
p1206
aS'urn:cts:cwkb:2388.8679'
p1207
aS'urn:cts:cwkb:2388.8654'
p1208
aS'urn:cts:cwkb:2388.8642'
p1209
aS'urn:cts:cwkb:2388.8681'
p1210
aS'urn:cts:cwkb:2388.8658'
p1211
aS'urn:cts:cwkb:2388.8671'
p1212
aS'urn:cts:cwkb:2388.9409'
p1213
aS'urn:cts:cwkb:2388.8662'
p1214
aS'urn:cts:cwkb:2388.8655'
p1215
aS'urn:cts:cwkb:2388.9401'
p1216
aS'urn:cts:cwkb:2388.9402'
p1217
aS'urn:cts:cwkb:2388.9393'
p1218
aS'urn:cts:cwkb:2388.9405'
p1219
aS'urn:cts:cwkb:2388.9396'
p1220
aS'urn:cts:cwkb:2388.8678'
p1221
aS'urn:cts:cwkb:2388.9403'
p1222
aS'urn:cts:cwkb:2388.8643'
p1223
aS'urn:cts:cwkb:2388.8674'
p1224
aS'urn:cts:cwkb:2388.8659'
p1225
aS'urn:cts:cwkb:2388.8656'
p1226
aS'urn:cts:cwkb:2388.8670'
p1227
aS'urn:cts:cwkb:2388.9400'
p1228
aS'urn:cts:cwkb:2388.9411'
p1229
aS'urn:cts:cwkb:2388.8668'
p1230
aS'urn:cts:cwkb:2388.8651'
p1231
aS'urn:cts:cwkb:2388.8676'
p1232
aS'urn:cts:cwkb:2388.8648'
p1233
aS'urn:cts:cwkb:2388.9408'
p1234
aS'urn:cts:cwkb:2388.9414'
p1235
aS'urn:cts:cwkb:2388.8667'
p1236
aS'urn:cts:cwkb:2388.8650'
p1237
aS'urn:cts:cwkb:2388.9397'
p1238
aS'urn:cts:cwkb:2388.8669'
p1239
aS'urn:cts:cwkb:2388.9413'
p1240
aS'urn:cts:cwkb:2388.9394'
p1241
aS'urn:cts:cwkb:2388.8666'
p1242
aS'urn:cts:cwkb:2388.7941'
p1243
aS'urn:cts:cwkb:2388.8640'
p1244
aS'urn:cts:cwkb:2388.8661'
p1245
aS'urn:cts:cwkb:2388.9407'
p1246
aS'urn:cts:cwkb:2388.8647'
p1247
aS'urn:cts:cwkb:2389.7942'
p1248
aS'urn:cts:cwkb:2390.8822'
p1249
aS'urn:cts:cwkb:2390.8817'
p1250
aS'urn:cts:cwkb:2390.8818'
p1251
aS'urn:cts:cwkb:2390.8832'
p1252
aS'urn:cts:cwkb:2390.8839'
p1253
aS'urn:cts:cwkb:2390.8829'
p1254
aS'urn:cts:cwkb:2390.8838'
p1255
aS'urn:cts:cwkb:2390.8821'
p1256
aS'urn:cts:cwkb:2390.8826'
p1257
aS'urn:cts:cwkb:2390.9294'
p1258
aS'urn:cts:cwkb:2390.8827'
p1259
aS'urn:cts:cwkb:2390.8831'
p1260
aS'urn:cts:cwkb:2390.8830'
p1261
aS'urn:cts:cwkb:2390.8815'
p1262
aS'urn:cts:cwkb:2390.8840'
p1263
aS'urn:cts:cwkb:2390.7946'
p1264
aS'urn:cts:cwkb:2390.8833'
p1265
aS'urn:cts:cwkb:2390.8836'
p1266
aS'urn:cts:cwkb:2390.8834'
p1267
aS'urn:cts:cwkb:2390.9296'
p1268
aS'urn:cts:cwkb:2390.8814'
p1269
aS'urn:cts:cwkb:2390.8819'
p1270
aS'urn:cts:cwkb:2390.9295'
p1271
aS'urn:cts:cwkb:2390.7943'
p1272
aS'urn:cts:cwkb:2390.8841'
p1273
aS'urn:cts:cwkb:2390.8820'
p1274
aS'urn:cts:cwkb:2390.8825'
p1275
aS'urn:cts:cwkb:2390.9293'
p1276
aS'urn:cts:cwkb:2390.8837'
p1277
aS'urn:cts:cwkb:2390.8813'
p1278
aS'urn:cts:cwkb:2390.8824'
p1279
aS'urn:cts:cwkb:2390.8816'
p1280
aS'urn:cts:cwkb:2390.8828'
p1281
aS'urn:cts:cwkb:2390.8823'
p1282
aS'urn:cts:cwkb:2390.8835'
p1283
aS'urn:cts:cwkb:2391.8942'
p1284
aS'urn:cts:cwkb:2391.8940'
p1285
aS'urn:cts:cwkb:2391.8943'
p1286
aS'urn:cts:cwkb:2391.8937'
p1287
aS'urn:cts:cwkb:2391.8941'
p1288
aS'urn:cts:cwkb:2391.8936'
p1289
aS'urn:cts:cwkb:2391.8944'
p1290
aS'urn:cts:cwkb:2391.7944'
p1291
aS'urn:cts:cwkb:2391.8938'
p1292
aS'urn:cts:cwkb:2391.8939'
p1293
aS'urn:cts:cwkb:2392.8302'
p1294
aS'urn:cts:cwkb:2392.9033'
p1295
aS'urn:cts:cwkb:2392.7945'
p1296
aS'urn:cts:cwkb:2392.9032'
p1297
aS'urn:cts:cwkb:2392.9540'
p1298
aS'urn:cts:cwkb:2392.8303'
p1299
aS'urn:cts:cwkb:2393.8298'
p1300
aS'urn:cts:cwkb:2393.7947'
p1301
aS'urn:cts:cwkb:2394.7948'
p1302
aS'urn:cts:cwkb:2395.7949'
p1303
aS'urn:cts:cwkb:2396.7950'
p1304
aS'urn:cts:cwkb:2398.7953'
p1305
aS'urn:cts:cwkb:2398.7954'
p1306
aS'urn:cts:cwkb:2399.7955'
p1307
aS'urn:cts:cwkb:2400.7956'
p1308
aS'urn:cts:cwkb:2401.9498'
p1309
aS'urn:cts:greekLit:tlg2934.tlg066'
p1310
aS'urn:cts:cwkb:2401.9186'
p1311
aS'urn:cts:cwkb:2401.8291'
p1312
aS'urn:cts:cwkb:2402.7960'
p1313
aS'urn:cts:cwkb:2403.7964'
p1314
aS'urn:cts:cwkb:2403.7963'
p1315
aS'urn:cts:cwkb:2403.7962'
p1316
aS'urn:cts:cwkb:2404.7965'
p1317
aS'urn:cts:cwkb:2405.7967'
p1318
aS'urn:cts:cwkb:2405.7966'
p1319
aS'urn:cts:cwkb:2406.7968'
p1320
aS'urn:cts:cwkb:2407.7970'
p1321
aS'urn:cts:cwkb:2408.9459'
p1322
aS'urn:cts:cwkb:2408.7971'
p1323
aS'urn:cts:cwkb:2409.7972'
p1324
aS'urn:cts:cwkb:2410.7974'
p1325
aS'urn:cts:cwkb:2411.7976'
p1326
aS'urn:cts:cwkb:2412.7977'
p1327
aS'urn:cts:cwkb:2413.7978'
p1328
aS'urn:cts:cwkb:2414.7979'
p1329
aS'urn:cts:cwkb:2415.7981'
p1330
aS'urn:cts:cwkb:2415.7980'
p1331
aS'urn:cts:cwkb:2416.7982'
p1332
aS'urn:cts:cwkb:2418.7984'
p1333
aS'urn:cts:cwkb:2419.7987'
p1334
aS'urn:cts:cwkb:2420.7988'
p1335
aS'urn:cts:cwkb:2420.8170'
p1336
aS'urn:cts:cwkb:2421.8864'
p1337
aS'urn:cts:cwkb:2421.8863'
p1338
aS'urn:cts:cwkb:2421.7990'
p1339
aS'urn:cts:cwkb:2422.7991'
p1340
aS'urn:cts:cwkb:2422.9334'
p1341
aS'urn:cts:cwkb:2423.7992'
p1342
aS'urn:cts:cwkb:2423.4358'
p1343
aS'urn:cts:cwkb:2423.8035'
p1344
aS'urn:cts:cwkb:2423.8034'
p1345
aS'urn:cts:cwkb:2424.7993'
p1346
aS'urn:cts:cwkb:2425.7994'
p1347
aS'urn:cts:cwkb:2427.8334'
p1348
aS'urn:cts:cwkb:2427.7997'
p1349
aS'urn:cts:cwkb:2428.7998'
p1350
aS'urn:cts:cwkb:2429.7999'
p1351
aS'urn:cts:cwkb:2431.8001'
p1352
aS'urn:cts:greekLit:tlg0060.tlg001'
p1353
aS'urn:cts:cwkb:2432.8003'
p1354
aS'urn:cts:cwkb:2433.8006'
p1355
aS'urn:cts:cwkb:2434.8008'
p1356
aS'urn:cts:cwkb:2435.8009'
p1357
aS'urn:cts:cwkb:2436.8011'
p1358
aS'urn:cts:cwkb:2437.9001'
p1359
aS'urn:cts:cwkb:2437.8999'
p1360
aS'urn:cts:cwkb:2437.9002'
p1361
aS'urn:cts:cwkb:2437.9189'
p1362
aS'urn:cts:cwkb:2437.8998'
p1363
aS'urn:cts:cwkb:2437.8995'
p1364
aS'urn:cts:cwkb:2437.8997'
p1365
aS'urn:cts:cwkb:2437.8992'
p1366
aS'urn:cts:cwkb:2437.8994'
p1367
aS'urn:cts:cwkb:2437.8012'
p1368
aS'urn:cts:cwkb:2437.8996'
p1369
aS'urn:cts:cwkb:2437.9000'
p1370
aS'urn:cts:cwkb:2437.9569'
p1371
aS'urn:cts:cwkb:2437.8993'
p1372
aS'urn:cts:cwkb:2438.8013'
p1373
aS'urn:cts:cwkb:2439.8014'
p1374
aS'urn:cts:cwkb:2440.8015'
p1375
aS'urn:cts:cwkb:2441.8016'
p1376
aS'urn:cts:cwkb:2442.8017'
p1377
aS'urn:cts:cwkb:2443.8018'
p1378
aS'urn:cts:cwkb:2443.1578'
p1379
aS'urn:cts:cwkb:2444.8019'
p1380
aS'urn:cts:cwkb:2445.8023'
p1381
aS'urn:cts:cwkb:2445.8022'
p1382
aS'urn:cts:cwkb:2445.8024'
p1383
aS'urn:cts:cwkb:2445.8021'
p1384
aS'urn:cts:cwkb:2446.8025'
p1385
aS'urn:cts:cwkb:2447.8028'
p1386
aS'urn:cts:cwkb:2447.8027'
p1387
aS'urn:cts:cwkb:2449.8030'
p1388
aS'urn:cts:cwkb:2450.8031'
p1389
aS'urn:cts:cwkb:2452.8036'
p1390
aS'urn:cts:cwkb:2453.8039'
p1391
aS'urn:cts:cwkb:2454.8040'
p1392
aS'urn:cts:cwkb:2455.8041'
p1393
aS'urn:cts:cwkb:2455.8315'
p1394
aS'urn:cts:cwkb:2456.8043'
p1395
aS'urn:cts:cwkb:2458.8049'
p1396
aS'urn:cts:cwkb:2458.8048'
p1397
aS'urn:cts:cwkb:2458.8047'
p1398
aS'urn:cts:cwkb:2459.1527'
p1399
aS'urn:cts:cwkb:2460.8053'
p1400
aS'urn:cts:cwkb:2461.8054'
p1401
aS'urn:cts:cwkb:2462.8055'
p1402
aS'urn:cts:cwkb:2463.8056'
p1403
aS'urn:cts:cwkb:2464.8057'
p1404
aS'urn:cts:cwkb:2465.8058'
p1405
aS'urn:cts:cwkb:2466.8059'
p1406
aS'urn:cts:cwkb:2467.8060'
p1407
aS'urn:cts:cwkb:2468.8517'
p1408
aS'urn:cts:cwkb:2468.8532'
p1409
aS'urn:cts:cwkb:2468.8530'
p1410
aS'urn:cts:cwkb:2468.8535'
p1411
aS'urn:cts:cwkb:2468.8525'
p1412
aS'urn:cts:cwkb:2468.8520'
p1413
aS'urn:cts:cwkb:2468.8522'
p1414
aS'urn:cts:cwkb:2468.8534'
p1415
aS'urn:cts:cwkb:2468.8529'
p1416
aS'urn:cts:cwkb:2468.8510'
p1417
aS'urn:cts:cwkb:2468.8515'
p1418
aS'urn:cts:cwkb:2468.8521'
p1419
aS'urn:cts:cwkb:2468.8523'
p1420
aS'urn:cts:cwkb:2468.8514'
p1421
aS'urn:cts:cwkb:2468.8526'
p1422
aS'urn:cts:cwkb:2468.8536'
p1423
aS'urn:cts:cwkb:2468.8518'
p1424
aS'urn:cts:cwkb:2468.8513'
p1425
aS'urn:cts:cwkb:2468.9343'
p1426
aS'urn:cts:cwkb:2468.9348'
p1427
aS'urn:cts:cwkb:2468.8533'
p1428
aS'urn:cts:cwkb:2468.8531'
p1429
aS'urn:cts:cwkb:2468.8512'
p1430
aS'urn:cts:cwkb:2468.8527'
p1431
aS'urn:cts:cwkb:2468.8528'
p1432
aS'urn:cts:cwkb:2468.8524'
p1433
aS'urn:cts:cwkb:2468.8509'
p1434
aS'urn:cts:cwkb:2468.8519'
p1435
aS'urn:cts:cwkb:2468.8061'
p1436
aS'urn:cts:cwkb:2468.8511'
p1437
aS'urn:cts:cwkb:2468.8516'
p1438
aS'urn:cts:cwkb:2469.8697'
p1439
aS'urn:cts:cwkb:2469.8062'
p1440
aS'urn:cts:cwkb:2469.8692'
p1441
aS'urn:cts:cwkb:2469.8690'
p1442
aS'urn:cts:cwkb:2469.8695'
p1443
aS'urn:cts:cwkb:2469.8693'
p1444
aS'urn:cts:cwkb:2469.8691'
p1445
aS'urn:cts:cwkb:2469.8696'
p1446
aS'urn:cts:cwkb:2469.8694'
p1447
aS'urn:cts:cwkb:2470.8063'
p1448
aS'urn:cts:cwkb:2471.8064'
p1449
aS'urn:cts:greekLit:tlg0036.tlg001'
p1450
aS'urn:cts:greekLit:tlg0036.tlg002'
p1451
aS'urn:cts:greekLit:tlg0036.tlg003'
p1452
aS'urn:cts:cwkb:2474.8068'
p1453
aS'urn:cts:cwkb:2476.8070'
p1454
aS'urn:cts:cwkb:2477.8071'
p1455
aS'urn:cts:cwkb:2478.8072'
p1456
aS'urn:cts:cwkb:2479.8073'
p1457
aS'urn:cts:cwkb:2480.8074'
p1458
aS'urn:cts:cwkb:2481.8075'
p1459
aS'urn:cts:cwkb:2482.8076'
p1460
aS'urn:cts:cwkb:2483.8080'
p1461
aS'urn:cts:cwkb:2483.8174'
p1462
aS'urn:cts:cwkb:2484.8081'
p1463
aS'urn:cts:cwkb:2484.8084'
p1464
aS'urn:cts:cwkb:2484.8082'
p1465
aS'urn:cts:cwkb:2484.8089'
p1466
aS'urn:cts:cwkb:2484.8087'
p1467
aS'urn:cts:cwkb:2484.8085'
p1468
aS'urn:cts:cwkb:2484.8088'
p1469
aS'urn:cts:cwkb:2484.8086'
p1470
aS'urn:cts:cwkb:2484.8083'
p1471
aS'urn:cts:cwkb:2485.8091'
p1472
aS'urn:cts:cwkb:2486.8093'
p1473
aS'urn:cts:cwkb:2487.8094'
p1474
aS'urn:cts:cwkb:2488.8095'
p1475
aS'urn:cts:cwkb:2489.8096'
p1476
aS'urn:cts:cwkb:2490.8097'
p1477
aS'urn:cts:cwkb:2491.8098'
p1478
aS'urn:cts:cwkb:2492.8099'
p1479
aS'urn:cts:cwkb:2493.8102'
p1480
aS'urn:cts:cwkb:2494.8103'
p1481
aS'urn:cts:cwkb:2495.8105'
p1482
aS'urn:cts:cwkb:2496.8106'
p1483
aS'urn:cts:cwkb:2497.8108'
p1484
aS'urn:cts:cwkb:2497.8109'
p1485
aS'urn:cts:cwkb:2497.8111'
p1486
aS'urn:cts:cwkb:2497.8110'
p1487
aS'urn:cts:cwkb:2498.8112'
p1488
aS'urn:cts:cwkb:2499.8113'
p1489
aS'urn:cts:cwkb:2501.8116'
p1490
aS'urn:cts:cwkb:2502.8117'
p1491
aS'urn:cts:cwkb:2502.8119'
p1492
aS'urn:cts:cwkb:2502.8118'
p1493
aS'urn:cts:cwkb:2502.8120'
p1494
aS'urn:cts:cwkb:2503.8123'
p1495
aS'urn:cts:cwkb:2505.8135'
p1496
aS'urn:cts:cwkb:2506.9625'
p1497
aS'urn:cts:cwkb:2506.8137'
p1498
aS'urn:cts:cwkb:2507.8138'
p1499
aS'urn:cts:cwkb:2508.8140'
p1500
aS'urn:cts:cwkb:2509.8141'
p1501
aS'urn:cts:cwkb:2510.8142'
p1502
aS'urn:cts:cwkb:2512.8144'
p1503
aS'urn:cts:cwkb:2513.8145'
p1504
aS'urn:cts:cwkb:2514.1519'
p1505
aS'urn:cts:cwkb:2514.8146'
p1506
aS'urn:cts:cwkb:2515.8147'
p1507
aS'urn:cts:cwkb:2516.8148'
p1508
aS'urn:cts:cwkb:2518.8152'
p1509
aS'urn:cts:cwkb:2518.9198'
p1510
aS'urn:cts:cwkb:2519.8153'
p1511
aS'urn:cts:cwkb:2520.8154'
p1512
aS'urn:cts:cwkb:2521.8155'
p1513
aS'urn:cts:cwkb:2522.8156'
p1514
aS'urn:cts:cwkb:2523.8157'
p1515
aS'urn:cts:cwkb:2524.8158'
p1516
aS'urn:cts:cwkb:2525.8161'
p1517
aS'urn:cts:cwkb:2525.9302'
p1518
aS'urn:cts:cwkb:2526.8162'
p1519
aS'urn:cts:cwkb:2527.8163'
p1520
aS'urn:cts:cwkb:2528.8164'
p1521
aS'urn:cts:cwkb:2529.8166'
p1522
aS'urn:cts:cwkb:2531.8169'
p1523
aS'urn:cts:cwkb:2532.8171'
p1524
aS'urn:cts:cwkb:2533.8172'
p1525
aS'urn:cts:cwkb:2533.2672'
p1526
aS'urn:cts:cwkb:2534.9557'
p1527
aS'urn:cts:cwkb:2534.8173'
p1528
aS'urn:cts:cwkb:2535.8175'
p1529
aS'urn:cts:cwkb:2536.8176'
p1530
aS'urn:cts:cwkb:2537.8177'
p1531
aS'urn:cts:cwkb:2538.8178'
p1532
aS'urn:cts:cwkb:2539.8179'
p1533
aS'urn:cts:cwkb:2540.8180'
p1534
aS'urn:cts:cwkb:2541.8181'
p1535
aS'urn:cts:cwkb:2542.8183'
p1536
aS'urn:cts:cwkb:2543.8184'
p1537
aS'urn:cts:cwkb:2544.8185'
p1538
aS'urn:cts:cwkb:2545.8186'
p1539
aS'urn:cts:cwkb:2546.8187'
p1540
aS'urn:cts:cwkb:2547.8188'
p1541
aS'urn:cts:cwkb:2548.8189'
p1542
aS'urn:cts:cwkb:2549.8190'
p1543
aS'urn:cts:cwkb:2550.8191'
p1544
aS'urn:cts:cwkb:2551.8192'
p1545
aS'urn:cts:cwkb:2552.8193'
p1546
aS'urn:cts:cwkb:2553.8194'
p1547
aS'urn:cts:cwkb:2554.8195'
p1548
aS'urn:cts:cwkb:2555.8196'
p1549
aS'urn:cts:cwkb:2556.8197'
p1550
aS'urn:cts:cwkb:2557.8198'
p1551
aS'urn:cts:cwkb:2558.8199'
p1552
aS'urn:cts:cwkb:2559.8200'
p1553
aS'urn:cts:cwkb:2560.8201'
p1554
aS'urn:cts:cwkb:2561.8202'
p1555
aS'urn:cts:cwkb:2562.8204'
p1556
aS'urn:cts:cwkb:2563.8205'
p1557
aS'urn:cts:cwkb:2564.8206'
p1558
aS'urn:cts:cwkb:2565.8207'
p1559
aS'urn:cts:cwkb:2566.8208'
p1560
aS'urn:cts:cwkb:2567.8209'
p1561
aS'urn:cts:cwkb:2568.8210'
p1562
aS'urn:cts:cwkb:2569.8211'
p1563
aS'urn:cts:cwkb:2570.8212'
p1564
aS'urn:cts:cwkb:2570.9124'
p1565
aS'urn:cts:cwkb:2571.8213'
p1566
aS'urn:cts:cwkb:2572.8214'
p1567
aS'urn:cts:cwkb:2573.8215'
p1568
aS'urn:cts:cwkb:2574.9019'
p1569
aS'urn:cts:cwkb:2574.9018'
p1570
aS'urn:cts:cwkb:2574.8216'
p1571
aS'urn:cts:cwkb:2575.9139'
p1572
aS'urn:cts:cwkb:2575.8219'
p1573
aS'urn:cts:cwkb:2576.8220'
p1574
aS'urn:cts:cwkb:2577.8223'
p1575
aS'urn:cts:cwkb:2578.8224'
p1576
aS'urn:cts:cwkb:2579.8225'
p1577
aS'urn:cts:cwkb:2580.3436'
p1578
aS'urn:cts:cwkb:2580.8227'
p1579
aS'urn:cts:cwkb:2581.8228'
p1580
aS'urn:cts:cwkb:2582.8338'
p1581
aS'urn:cts:cwkb:2582.9451'
p1582
aS'urn:cts:cwkb:2582.9616'
p1583
aS'urn:cts:cwkb:2582.8230'
p1584
aS'urn:cts:cwkb:2583.8232'
p1585
aS'urn:cts:cwkb:2584.8233'
p1586
aS'urn:cts:cwkb:2585.8234'
p1587
aS'urn:cts:cwkb:2586.8235'
p1588
aS'urn:cts:cwkb:2587.8237'
p1589
aS'urn:cts:cwkb:2589.8239'
p1590
aS'urn:cts:cwkb:2591.9052'
p1591
aS'urn:cts:cwkb:2591.8242'
p1592
aS'urn:cts:cwkb:2592.8243'
p1593
aS'urn:cts:cwkb:2593.8244'
p1594
aS'urn:cts:cwkb:2593.8320'
p1595
aS'urn:cts:cwkb:2594.8245'
p1596
aS'urn:cts:cwkb:2595.8247'
p1597
aS'urn:cts:cwkb:2596.3525'
p1598
aS'urn:cts:cwkb:2596.8249'
p1599
aS'urn:cts:cwkb:2597.8250'
p1600
aS'urn:cts:cwkb:2598.8251'
p1601
aS'urn:cts:cwkb:2599.8253'
p1602
aS'urn:cts:cwkb:2600.8254'
p1603
aS'urn:cts:cwkb:2601.8255'
p1604
aS'urn:cts:cwkb:2602.8256'
p1605
aS'urn:cts:cwkb:2603.8257'
p1606
aS'urn:cts:cwkb:2604.8260'
p1607
aS'urn:cts:cwkb:2605.8261'
p1608
aS'urn:cts:cwkb:2606.8262'
p1609
aS'urn:cts:cwkb:2607.8263'
p1610
aS'urn:cts:cwkb:2608.8264'
p1611
aS'urn:cts:cwkb:2609.8266'
p1612
aS'urn:cts:cwkb:2609.8265'
p1613
aS'urn:cts:cwkb:2610.8270'
p1614
aS'urn:cts:cwkb:2611.8271'
p1615
aS'urn:cts:cwkb:2612.8272'
p1616
aS'urn:cts:cwkb:2613.8371'
p1617
aS'urn:cts:cwkb:2613.9351'
p1618
aS'urn:cts:cwkb:2613.8380'
p1619
aS'urn:cts:cwkb:2613.8363'
p1620
aS'urn:cts:cwkb:2613.8355'
p1621
aS'urn:cts:cwkb:2613.8361'
p1622
aS'urn:cts:cwkb:2613.8364'
p1623
aS'urn:cts:cwkb:2613.8387'
p1624
aS'urn:cts:cwkb:2613.9260'
p1625
aS'urn:cts:cwkb:2613.8384'
p1626
aS'urn:cts:cwkb:2613.8370'
p1627
aS'urn:cts:cwkb:2613.8386'
p1628
aS'urn:cts:cwkb:2613.8385'
p1629
aS'urn:cts:cwkb:2613.8375'
p1630
aS'urn:cts:cwkb:2613.8377'
p1631
aS'urn:cts:cwkb:2613.8365'
p1632
aS'urn:cts:cwkb:2613.9251'
p1633
aS'urn:cts:cwkb:2613.8382'
p1634
aS'urn:cts:cwkb:2613.9253'
p1635
aS'urn:cts:cwkb:2613.8366'
p1636
aS'urn:cts:cwkb:2613.9256'
p1637
aS'urn:cts:cwkb:2613.8356'
p1638
aS'urn:cts:cwkb:2613.9258'
p1639
aS'urn:cts:cwkb:2613.8383'
p1640
aS'urn:cts:cwkb:2613.9376'
p1641
aS'urn:cts:cwkb:2613.9068'
p1642
aS'urn:cts:cwkb:2613.9357'
p1643
aS'urn:cts:cwkb:2613.8388'
p1644
aS'urn:cts:cwkb:2613.8374'
p1645
aS'urn:cts:cwkb:2613.8368'
p1646
aS'urn:cts:cwkb:2613.8376'
p1647
aS'urn:cts:cwkb:2613.8359'
p1648
aS'urn:cts:cwkb:2613.8373'
p1649
aS'urn:cts:cwkb:2613.8381'
p1650
aS'urn:cts:cwkb:2613.8369'
p1651
aS'urn:cts:cwkb:2613.8367'
p1652
aS'urn:cts:cwkb:2613.9347'
p1653
aS'urn:cts:cwkb:2613.8362'
p1654
aS'urn:cts:cwkb:2613.8360'
p1655
aS'urn:cts:cwkb:2613.9358'
p1656
aS'urn:cts:cwkb:2613.8372'
p1657
aS'urn:cts:cwkb:2613.8358'
p1658
aS'urn:cts:cwkb:2613.8357'
p1659
aS'urn:cts:cwkb:2613.8389'
p1660
aS'urn:cts:cwkb:2613.8274'
p1661
aS'urn:cts:cwkb:2613.9252'
p1662
aS'urn:cts:cwkb:2613.9250'
p1663
aS'urn:cts:cwkb:2613.8379'
p1664
aS'urn:cts:cwkb:2613.9067'
p1665
aS'urn:cts:cwkb:2613.8378'
p1666
aS'urn:cts:cwkb:2614.8275'
p1667
aS'urn:cts:cwkb:2616.8280'
p1668
aS'urn:cts:cwkb:2617.9176'
p1669
aS'urn:cts:cwkb:2618.8283'
p1670
aS'urn:cts:cwkb:2619.8284'
p1671
aS'urn:cts:cwkb:2620.8285'
p1672
aS'urn:cts:cwkb:2621.8286'
p1673
aS'urn:cts:cwkb:2622.8287'
p1674
aS'urn:cts:cwkb:2623.8289'
p1675
aS'urn:cts:cwkb:2624.8290'
p1676
aS'urn:cts:cwkb:2625.8317'
p1677
aS'urn:cts:cwkb:2625.8292'
p1678
aS'urn:cts:cwkb:2626.8293'
p1679
aS'urn:cts:cwkb:2627.8294'
p1680
aS'urn:cts:cwkb:2627.9106'
p1681
aS'urn:cts:cwkb:2628.8295'
p1682
aS'urn:cts:cwkb:2629.8296'
p1683
aS'urn:cts:cwkb:2630.8297'
p1684
aS'urn:cts:cwkb:2631.8299'
p1685
aS'urn:cts:cwkb:2632.8300'
p1686
aS'urn:cts:cwkb:2633.8301'
p1687
aS'urn:cts:cwkb:2634.8305'
p1688
aS'urn:cts:cwkb:2635.8306'
p1689
aS'urn:cts:cwkb:2636.8307'
p1690
aS'urn:cts:cwkb:2637.8308'
p1691
aS'urn:cts:cwkb:2638.8309'
p1692
aS'urn:cts:greekLit:tlg0647.tlg001'
p1693
aS'urn:cts:cwkb:2640.8311'
p1694
aS'urn:cts:cwkb:2641.8312'
p1695
aS'urn:cts:cwkb:2641.9524'
p1696
aS'urn:cts:cwkb:2642.8313'
p1697
aS'urn:cts:cwkb:2643.8314'
p1698
aS'urn:cts:cwkb:2644.8316'
p1699
aS'urn:cts:cwkb:2645.8318'
p1700
aS'urn:cts:cwkb:2646.9328'
p1701
aS'urn:cts:cwkb:2646.8319'
p1702
aS'urn:cts:cwkb:2646.9303'
p1703
aS'urn:cts:cwkb:2646.9305'
p1704
aS'urn:cts:cwkb:2646.9297'
p1705
aS'urn:cts:cwkb:2647.8321'
p1706
aS'urn:cts:cwkb:2648.8322'
p1707
aS'urn:cts:cwkb:2649.8323'
p1708
aS'urn:cts:cwkb:2650.8324'
p1709
aS'urn:cts:cwkb:2651.8325'
p1710
aS'urn:cts:cwkb:2652.8326'
p1711
aS'urn:cts:cwkb:2653.8327'
p1712
aS'urn:cts:cwkb:2654.8329'
p1713
aS'urn:cts:cwkb:2655.8330'
p1714
aS'urn:cts:cwkb:2656.8331'
p1715
aS'urn:cts:cwkb:2657.8332'
p1716
aS'urn:cts:cwkb:2659.8339'
p1717
aS'urn:cts:cwkb:2660.8350'
p1718
aS'urn:cts:cwkb:2661.9474'
p1719
aS'urn:cts:cwkb:2661.8351'
p1720
aS'urn:cts:cwkb:2661.9626'
p1721
aS'urn:cts:cwkb:2662.8352'
p1722
aS'urn:cts:greekLit:tlg1600.tlg001'
p1723
aS'urn:cts:cwkb:2664.8354'
p1724
aS'urn:cts:cwkb:2665.8390'
p1725
aS'urn:cts:cwkb:2666.8391'
p1726
aS'urn:cts:cwkb:2667.8392'
p1727
aS'urn:cts:cwkb:2667.9287'
p1728
aS'urn:cts:cwkb:2667.8395'
p1729
aS'urn:cts:cwkb:2667.8394'
p1730
aS'urn:cts:cwkb:2667.8393'
p1731
aS'urn:cts:cwkb:2668.8396'
p1732
aS'urn:cts:cwkb:2669.8397'
p1733
aS'urn:cts:cwkb:2670.8398'
p1734
aS'urn:cts:cwkb:2671.8402'
p1735
aS'urn:cts:cwkb:2671.8401'
p1736
aS'urn:cts:cwkb:2671.8400'
p1737
aS'urn:cts:cwkb:2672.8537'
p1738
aS'urn:cts:cwkb:2673.8538'
p1739
aS'urn:cts:cwkb:2674.8539'
p1740
aS'urn:cts:cwkb:2675.8540'
p1741
aS'urn:cts:cwkb:2676.8541'
p1742
aS'urn:cts:cwkb:2677.8542'
p1743
aS'urn:cts:cwkb:2678.8543'
p1744
aS'urn:cts:cwkb:2679.8544'
p1745
aS'urn:cts:cwkb:2680.8545'
p1746
aS'urn:cts:cwkb:2681.8546'
p1747
aS'urn:cts:cwkb:2682.8547'
p1748
aS'urn:cts:cwkb:2683.8548'
p1749
aS'urn:cts:cwkb:2684.8549'
p1750
aS'urn:cts:cwkb:2685.8550'
p1751
aS'urn:cts:cwkb:2686.8551'
p1752
aS'urn:cts:cwkb:2687.8552'
p1753
aS'urn:cts:cwkb:2688.8553'
p1754
aS'urn:cts:cwkb:2689.8554'
p1755
aS'urn:cts:cwkb:2690.8555'
p1756
aS'urn:cts:cwkb:2691.8556'
p1757
aS'urn:cts:cwkb:2692.8557'
p1758
aS'urn:cts:cwkb:2693.8558'
p1759
aS'urn:cts:cwkb:2694.8559'
p1760
aS'urn:cts:cwkb:2695.8560'
p1761
aS'urn:cts:cwkb:2696.8561'
p1762
aS'urn:cts:cwkb:2697.8562'
p1763
aS'urn:cts:cwkb:2698.8563'
p1764
aS'urn:cts:cwkb:2699.8564'
p1765
aS'urn:cts:cwkb:2700.8567'
p1766
aS'urn:cts:cwkb:2700.9173'
p1767
aS'urn:cts:cwkb:2701.8568'
p1768
aS'urn:cts:cwkb:2701.8569'
p1769
aS'urn:cts:cwkb:2703.9034'
p1770
aS'urn:cts:cwkb:2703.8571'
p1771
aS'urn:cts:cwkb:2705.8576'
p1772
aS'urn:cts:cwkb:2705.8585'
p1773
aS'urn:cts:cwkb:2705.8582'
p1774
aS'urn:cts:cwkb:2705.9324'
p1775
aS'urn:cts:cwkb:2705.8580'
p1776
aS'urn:cts:cwkb:2705.8584'
p1777
aS'urn:cts:cwkb:2705.8583'
p1778
aS'urn:cts:cwkb:2705.8578'
p1779
aS'urn:cts:cwkb:2705.8577'
p1780
aS'urn:cts:cwkb:2705.8575'
p1781
aS'urn:cts:cwkb:2705.9325'
p1782
aS'urn:cts:cwkb:2705.8579'
p1783
aS'urn:cts:cwkb:2705.8581'
p1784
aS'urn:cts:cwkb:2706.8587'
p1785
aS'urn:cts:cwkb:2706.8598'
p1786
aS'urn:cts:cwkb:2706.8574'
p1787
aS'urn:cts:cwkb:2706.8573'
p1788
aS'urn:cts:cwkb:2706.8594'
p1789
aS'urn:cts:cwkb:2706.8596'
p1790
aS'urn:cts:cwkb:2706.8591'
p1791
aS'urn:cts:cwkb:2706.8593'
p1792
aS'urn:cts:cwkb:2706.9307'
p1793
aS'urn:cts:cwkb:2706.8589'
p1794
aS'urn:cts:cwkb:2706.8586'
p1795
aS'urn:cts:cwkb:2706.8590'
p1796
aS'urn:cts:cwkb:2706.8597'
p1797
aS'urn:cts:cwkb:2706.8592'
p1798
aS'urn:cts:cwkb:2706.8595'
p1799
aS'urn:cts:cwkb:2706.8588'
p1800
aS'urn:cts:cwkb:2707.8599'
p1801
aS'urn:cts:cwkb:2709.8604'
p1802
aS'urn:cts:cwkb:2709.8603'
p1803
aS'urn:cts:cwkb:2709.8602'
p1804
aS'urn:cts:cwkb:2709.8605'
p1805
aS'urn:cts:cwkb:2710.8607'
p1806
aS'urn:cts:cwkb:2710.8606'
p1807
aS'urn:cts:cwkb:2710.8609'
p1808
aS'urn:cts:cwkb:2710.8608'
p1809
aS'urn:cts:cwkb:2710.8610'
p1810
aS'urn:cts:cwkb:2711.8611'
p1811
aS'urn:cts:cwkb:2712.8613'
p1812
aS'urn:cts:cwkb:2712.8612'
p1813
aS'urn:cts:cwkb:2713.8614'
p1814
aS'urn:cts:cwkb:2714.8616'
p1815
aS'urn:cts:cwkb:2714.8617'
p1816
aS'urn:cts:cwkb:2714.8615'
p1817
aS'urn:cts:cwkb:2714.9435'
p1818
aS'urn:cts:cwkb:2715.8618'
p1819
aS'urn:cts:cwkb:2716.8619'
p1820
aS'urn:cts:cwkb:2717.9035'
p1821
aS'urn:cts:cwkb:2717.8620'
p1822
aS'urn:cts:cwkb:2718.8621'
p1823
aS'urn:cts:cwkb:2719.8622'
p1824
aS'urn:cts:cwkb:2720.8624'
p1825
aS'urn:cts:cwkb:2720.8623'
p1826
aS'urn:cts:cwkb:2721.8625'
p1827
aS'urn:cts:cwkb:2722.8626'
p1828
aS'urn:cts:cwkb:2722.8629'
p1829
aS'urn:cts:cwkb:2722.8628'
p1830
aS'urn:cts:cwkb:2722.8627'
p1831
aS'urn:cts:cwkb:2723.8630'
p1832
aS'urn:cts:cwkb:2724.8631'
p1833
aS'urn:cts:cwkb:2725.8632'
p1834
aS'urn:cts:cwkb:2726.9313'
p1835
aS'urn:cts:cwkb:2726.8638'
p1836
aS'urn:cts:cwkb:2726.9316'
p1837
aS'urn:cts:cwkb:2726.9389'
p1838
aS'urn:cts:cwkb:2726.9315'
p1839
aS'urn:cts:cwkb:2726.8634'
p1840
aS'urn:cts:cwkb:2726.8636'
p1841
aS'urn:cts:cwkb:2726.9314'
p1842
aS'urn:cts:cwkb:2726.8633'
p1843
aS'urn:cts:cwkb:2726.8635'
p1844
aS'urn:cts:cwkb:2726.9312'
p1845
aS'urn:cts:cwkb:2726.8637'
p1846
aS'urn:cts:cwkb:2727.9311'
p1847
aS'urn:cts:cwkb:2727.9496'
p1848
aS'urn:cts:cwkb:2727.8685'
p1849
aS'urn:cts:cwkb:2727.9525'
p1850
aS'urn:cts:cwkb:2727.8684'
p1851
aS'urn:cts:cwkb:2727.8686'
p1852
aS'urn:cts:cwkb:2727.8683'
p1853
aS'urn:cts:cwkb:2728.8687'
p1854
aS'urn:cts:cwkb:2728.8991'
p1855
aS'urn:cts:cwkb:2729.8688'
p1856
aS'urn:cts:cwkb:2730.8689'
p1857
aS'urn:cts:cwkb:2731.8698'
p1858
aS'urn:cts:cwkb:2731.8699'
p1859
aS'urn:cts:cwkb:2731.8700'
p1860
aS'urn:cts:cwkb:2732.8701'
p1861
aS'urn:cts:cwkb:2733.9335'
p1862
aS'urn:cts:cwkb:2733.8708'
p1863
aS'urn:cts:cwkb:2733.9333'
p1864
aS'urn:cts:cwkb:2733.8704'
p1865
aS'urn:cts:cwkb:2733.8706'
p1866
aS'urn:cts:cwkb:2733.9431'
p1867
aS'urn:cts:cwkb:2733.8703'
p1868
aS'urn:cts:cwkb:2733.8705'
p1869
aS'urn:cts:cwkb:2733.8707'
p1870
aS'urn:cts:cwkb:2733.8702'
p1871
aS'urn:cts:cwkb:2734.8710'
p1872
aS'urn:cts:cwkb:2735.8712'
p1873
aS'urn:cts:cwkb:2735.8715'
p1874
aS'urn:cts:cwkb:2735.8716'
p1875
aS'urn:cts:cwkb:2735.8714'
p1876
aS'urn:cts:cwkb:2735.8713'
p1877
aS'urn:cts:cwkb:2735.8711'
p1878
aS'urn:cts:cwkb:2736.8717'
p1879
aS'urn:cts:cwkb:2737.8719'
p1880
aS'urn:cts:cwkb:2737.8722'
p1881
aS'urn:cts:cwkb:2737.8720'
p1882
aS'urn:cts:cwkb:2737.8725'
p1883
aS'urn:cts:cwkb:2737.9354'
p1884
aS'urn:cts:cwkb:2737.8723'
p1885
aS'urn:cts:cwkb:2737.8721'
p1886
aS'urn:cts:cwkb:2737.8724'
p1887
aS'urn:cts:cwkb:2737.9353'
p1888
aS'urn:cts:cwkb:2737.9352'
p1889
aS'urn:cts:cwkb:2737.8718'
p1890
aS'urn:cts:cwkb:2738.8726'
p1891
aS'urn:cts:cwkb:2739.8727'
p1892
aS'urn:cts:cwkb:2740.8728'
p1893
aS'urn:cts:cwkb:2740.8729'
p1894
aS'urn:cts:cwkb:2740.8732'
p1895
aS'urn:cts:cwkb:2740.8734'
p1896
aS'urn:cts:cwkb:2740.8731'
p1897
aS'urn:cts:cwkb:2740.8733'
p1898
aS'urn:cts:cwkb:2740.8730'
p1899
aS'urn:cts:cwkb:2741.8735'
p1900
aS'urn:cts:cwkb:2742.8736'
p1901
aS'urn:cts:cwkb:2743.8737'
p1902
aS'urn:cts:cwkb:2744.8739'
p1903
aS'urn:cts:cwkb:2744.8738'
p1904
aS'urn:cts:cwkb:2744.8740'
p1905
aS'urn:cts:cwkb:2745.8741'
p1906
aS'urn:cts:cwkb:2746.8743'
p1907
aS'urn:cts:cwkb:2746.9279'
p1908
aS'urn:cts:cwkb:2746.9379'
p1909
aS'urn:cts:cwkb:2746.9278'
p1910
aS'urn:cts:cwkb:2746.9280'
p1911
aS'urn:cts:cwkb:2746.8742'
p1912
aS'urn:cts:cwkb:2746.9277'
p1913
aS'urn:cts:cwkb:2746.9284'
p1914
aS'urn:cts:cwkb:2747.8744'
p1915
aS'urn:cts:cwkb:2747.8745'
p1916
aS'urn:cts:cwkb:2748.8746'
p1917
aS'urn:cts:cwkb:2749.8747'
p1918
aS'urn:cts:cwkb:2750.8749'
p1919
aS'urn:cts:cwkb:2750.8750'
p1920
aS'urn:cts:cwkb:2750.9387'
p1921
aS'urn:cts:cwkb:2750.9386'
p1922
aS'urn:cts:cwkb:2750.8748'
p1923
aS'urn:cts:cwkb:2751.8752'
p1924
aS'urn:cts:cwkb:2751.8751'
p1925
aS'urn:cts:cwkb:2752.8753'
p1926
aS'urn:cts:cwkb:2753.8754'
p1927
aS'urn:cts:cwkb:2754.8757'
p1928
aS'urn:cts:cwkb:2754.8755'
p1929
aS'urn:cts:cwkb:2754.8756'
p1930
aS'urn:cts:cwkb:2754.9385'
p1931
aS'urn:cts:cwkb:2754.9471'
p1932
aS'urn:cts:cwkb:2754.8758'
p1933
aS'urn:cts:cwkb:2755.8767'
p1934
aS'urn:cts:cwkb:2755.8765'
p1935
aS'urn:cts:cwkb:2755.8762'
p1936
aS'urn:cts:cwkb:2755.8760'
p1937
aS'urn:cts:cwkb:2755.8763'
p1938
aS'urn:cts:cwkb:2755.8759'
p1939
aS'urn:cts:cwkb:2755.8766'
p1940
aS'urn:cts:cwkb:2755.8764'
p1941
aS'urn:cts:cwkb:2755.8761'
p1942
aS'urn:cts:cwkb:2757.8778'
p1943
aS'urn:cts:cwkb:2757.8780'
p1944
aS'urn:cts:cwkb:2757.8774'
p1945
aS'urn:cts:cwkb:2757.8776'
p1946
aS'urn:cts:cwkb:2757.8781'
p1947
aS'urn:cts:cwkb:2757.8771'
p1948
aS'urn:cts:cwkb:2757.8773'
p1949
aS'urn:cts:cwkb:2757.8777'
p1950
aS'urn:cts:cwkb:2757.8769'
p1951
aS'urn:cts:cwkb:2757.8779'
p1952
aS'urn:cts:cwkb:2757.8770'
p1953
aS'urn:cts:cwkb:2757.8772'
p1954
aS'urn:cts:cwkb:2757.8775'
p1955
aS'urn:cts:cwkb:2757.8768'
p1956
aS'urn:cts:cwkb:2757.8783'
p1957
aS'urn:cts:cwkb:2757.8782'
p1958
aS'urn:cts:cwkb:2758.8784'
p1959
aS'urn:cts:cwkb:2760.8785'
p1960
aS'urn:cts:cwkb:2760.8801'
p1961
aS'urn:cts:cwkb:2760.8791'
p1962
aS'urn:cts:cwkb:2760.8786'
p1963
aS'urn:cts:cwkb:2760.9378'
p1964
aS'urn:cts:cwkb:2760.8787'
p1965
aS'urn:cts:cwkb:2760.8789'
p1966
aS'urn:cts:cwkb:2760.8802'
p1967
aS'urn:cts:cwkb:2760.8800'
p1968
aS'urn:cts:cwkb:2760.9263'
p1969
aS'urn:cts:cwkb:2760.8788'
p1970
aS'urn:cts:cwkb:2760.9275'
p1971
aS'urn:cts:cwkb:2760.8796'
p1972
aS'urn:cts:cwkb:2760.8793'
p1973
aS'urn:cts:cwkb:2760.8792'
p1974
aS'urn:cts:cwkb:2760.8795'
p1975
aS'urn:cts:cwkb:2760.8799'
p1976
aS'urn:cts:cwkb:2760.8794'
p1977
aS'urn:cts:cwkb:2760.8798'
p1978
aS'urn:cts:cwkb:2760.8797'
p1979
aS'urn:cts:cwkb:2760.9377'
p1980
aS'urn:cts:cwkb:2760.8790'
p1981
aS'urn:cts:cwkb:2760.8803'
p1982
aS'urn:cts:cwkb:2761.8806'
p1983
aS'urn:cts:cwkb:2761.8805'
p1984
aS'urn:cts:cwkb:2761.8804'
p1985
aS'urn:cts:cwkb:2762.8808'
p1986
aS'urn:cts:cwkb:2763.9105'
p1987
aS'urn:cts:cwkb:2763.8842'
p1988
aS'urn:cts:cwkb:2764.8844'
p1989
aS'urn:cts:cwkb:2764.8843'
p1990
aS'urn:cts:cwkb:2765.8846'
p1991
aS'urn:cts:cwkb:2765.8845'
p1992
aS'urn:cts:cwkb:2765.9430'
p1993
aS'urn:cts:cwkb:2766.8847'
p1994
aS'urn:cts:cwkb:2767.8848'
p1995
aS'urn:cts:cwkb:2768.8849'
p1996
aS'urn:cts:cwkb:2769.8850'
p1997
aS'urn:cts:cwkb:2770.8851'
p1998
aS'urn:cts:cwkb:2771.8852'
p1999
aS'urn:cts:cwkb:2772.8853'
p2000
aS'urn:cts:cwkb:2772.9329'
p2001
aS'urn:cts:cwkb:2773.8854'
p2002
aS'urn:cts:cwkb:2774.8855'
p2003
aS'urn:cts:cwkb:2775.8856'
p2004
aS'urn:cts:cwkb:2776.8857'
p2005
aS'urn:cts:cwkb:2777.8858'
p2006
aS'urn:cts:cwkb:2778.8859'
p2007
aS'urn:cts:cwkb:2779.8860'
p2008
aS'urn:cts:cwkb:2780.8861'
p2009
aS'urn:cts:cwkb:2781.8862'
p2010
aS'urn:cts:cwkb:2782.8865'
p2011
aS'urn:cts:cwkb:2783.8866'
p2012
aS'urn:cts:cwkb:2784.8867'
p2013
aS'urn:cts:cwkb:2785.8891'
p2014
aS'urn:cts:cwkb:2785.8908'
p2015
aS'urn:cts:cwkb:2785.8894'
p2016
aS'urn:cts:cwkb:2785.8885'
p2017
aS'urn:cts:cwkb:2785.8895'
p2018
aS'urn:cts:cwkb:2785.8912'
p2019
aS'urn:cts:cwkb:2785.8903'
p2020
aS'urn:cts:cwkb:2785.8870'
p2021
aS'urn:cts:cwkb:2785.8911'
p2022
aS'urn:cts:cwkb:2785.8899'
p2023
aS'urn:cts:cwkb:2785.8892'
p2024
aS'urn:cts:cwkb:2785.8888'
p2025
aS'urn:cts:cwkb:2785.8910'
p2026
aS'urn:cts:cwkb:2785.8893'
p2027
aS'urn:cts:cwkb:2785.8909'
p2028
aS'urn:cts:cwkb:2785.8898'
p2029
aS'urn:cts:cwkb:2785.8889'
p2030
aS'urn:cts:cwkb:2785.8890'
p2031
aS'urn:cts:cwkb:2785.8873'
p2032
aS'urn:cts:cwkb:2785.8878'
p2033
aS'urn:cts:cwkb:2785.8874'
p2034
aS'urn:cts:cwkb:2785.8897'
p2035
aS'urn:cts:cwkb:2785.8882'
p2036
aS'urn:cts:cwkb:2785.8879'
p2037
aS'urn:cts:cwkb:2785.8887'
p2038
aS'urn:cts:cwkb:2785.8877'
p2039
aS'urn:cts:cwkb:2785.8896'
p2040
aS'urn:cts:cwkb:2785.8902'
p2041
aS'urn:cts:cwkb:2785.8886'
p2042
aS'urn:cts:cwkb:2785.8905'
p2043
aS'urn:cts:cwkb:2785.8872'
p2044
aS'urn:cts:cwkb:2785.8906'
p2045
aS'urn:cts:cwkb:2785.9070'
p2046
aS'urn:cts:cwkb:2785.8904'
p2047
aS'urn:cts:cwkb:2785.8875'
p2048
aS'urn:cts:cwkb:2785.8881'
p2049
aS'urn:cts:cwkb:2785.8876'
p2050
aS'urn:cts:cwkb:2785.8907'
p2051
aS'urn:cts:cwkb:2785.8880'
p2052
aS'urn:cts:cwkb:2785.8869'
p2053
aS'urn:cts:cwkb:2785.8900'
p2054
aS'urn:cts:cwkb:2785.8868'
p2055
aS'urn:cts:cwkb:2785.8901'
p2056
aS'urn:cts:cwkb:2785.8883'
p2057
aS'urn:cts:cwkb:2785.8871'
p2058
aS'urn:cts:cwkb:2785.8884'
p2059
aS'urn:cts:cwkb:2786.8913'
p2060
aS'urn:cts:cwkb:2787.8922'
p2061
aS'urn:cts:cwkb:2788.8925'
p2062
aS'urn:cts:cwkb:2788.8923'
p2063
aS'urn:cts:cwkb:2788.8924'
p2064
aS'urn:cts:cwkb:2789.8926'
p2065
aS'urn:cts:cwkb:2789.8927'
p2066
aS'urn:cts:cwkb:2789.9536'
p2067
aS'urn:cts:cwkb:2790.8928'
p2068
aS'urn:cts:cwkb:2790.8932'
p2069
aS'urn:cts:cwkb:2790.8929'
p2070
aS'urn:cts:cwkb:2790.9574'
p2071
aS'urn:cts:cwkb:2790.8930'
p2072
aS'urn:cts:cwkb:2790.8933'
p2073
aS'urn:cts:cwkb:2790.8931'
p2074
aS'urn:cts:cwkb:2791.8934'
p2075
aS'urn:cts:cwkb:2792.8935'
p2076
aS'urn:cts:cwkb:2794.8945'
p2077
aS'urn:cts:cwkb:2795.8950'
p2078
aS'urn:cts:cwkb:2796.8958'
p2079
aS'urn:cts:cwkb:2796.8966'
p2080
aS'urn:cts:cwkb:2796.9081'
p2081
aS'urn:cts:cwkb:2796.8957'
p2082
aS'urn:cts:cwkb:2796.8954'
p2083
aS'urn:cts:cwkb:2796.8951'
p2084
aS'urn:cts:cwkb:2796.8956'
p2085
aS'urn:cts:cwkb:2796.8959'
p2086
aS'urn:cts:cwkb:2796.8955'
p2087
aS'urn:cts:cwkb:2796.8961'
p2088
aS'urn:cts:cwkb:2796.8964'
p2089
aS'urn:cts:cwkb:2796.9080'
p2090
aS'urn:cts:cwkb:2796.9063'
p2091
aS'urn:cts:cwkb:2796.8965'
p2092
aS'urn:cts:cwkb:2796.9064'
p2093
aS'urn:cts:cwkb:2796.8969'
p2094
aS'urn:cts:cwkb:2796.8962'
p2095
aS'urn:cts:cwkb:2796.8952'
p2096
aS'urn:cts:cwkb:2796.8963'
p2097
aS'urn:cts:cwkb:2796.8968'
p2098
aS'urn:cts:cwkb:2796.8953'
p2099
aS'urn:cts:cwkb:2796.8960'
p2100
aS'urn:cts:cwkb:2796.8967'
p2101
aS'urn:cts:cwkb:2797.8972'
p2102
aS'urn:cts:cwkb:2797.8970'
p2103
aS'urn:cts:cwkb:2797.8975'
p2104
aS'urn:cts:cwkb:2797.8976'
p2105
aS'urn:cts:cwkb:2797.8973'
p2106
aS'urn:cts:cwkb:2797.8971'
p2107
aS'urn:cts:cwkb:2797.8974'
p2108
aS'urn:cts:cwkb:2798.8978'
p2109
aS'urn:cts:cwkb:2799.8979'
p2110
aS'urn:cts:cwkb:2799.8981'
p2111
aS'urn:cts:cwkb:2799.9082'
p2112
aS'urn:cts:cwkb:2799.9083'
p2113
aS'urn:cts:cwkb:2799.8980'
p2114
aS'urn:cts:cwkb:2800.8982'
p2115
aS'urn:cts:cwkb:2801.8989'
p2116
aS'urn:cts:cwkb:2801.8987'
p2117
aS'urn:cts:cwkb:2801.8985'
p2118
aS'urn:cts:cwkb:2801.8983'
p2119
aS'urn:cts:cwkb:2801.8988'
p2120
aS'urn:cts:cwkb:2801.8986'
p2121
aS'urn:cts:cwkb:2801.8984'
p2122
aS'urn:cts:cwkb:2802.8990'
p2123
aS'urn:cts:cwkb:2804.9003'
p2124
aS'urn:cts:cwkb:2805.9004'
p2125
aS'urn:cts:cwkb:2806.9005'
p2126
aS'urn:cts:cwkb:2807.9006'
p2127
aS'urn:cts:cwkb:2808.9007'
p2128
aS'urn:cts:cwkb:2809.9008'
p2129
aS'urn:cts:cwkb:2810.9009'
p2130
aS'urn:cts:cwkb:2811.9010'
p2131
aS'urn:cts:cwkb:2812.9011'
p2132
aS'urn:cts:cwkb:2813.9012'
p2133
aS'urn:cts:cwkb:2814.9016'
p2134
aS'urn:cts:cwkb:2814.9044'
p2135
aS'urn:cts:cwkb:2814.9013'
p2136
aS'urn:cts:cwkb:2814.9014'
p2137
aS'urn:cts:cwkb:2814.9017'
p2138
aS'urn:cts:cwkb:2814.9015'
p2139
aS'urn:cts:cwkb:2815.9020'
p2140
aS'urn:cts:cwkb:2816.9021'
p2141
aS'urn:cts:cwkb:2817.9024'
p2142
aS'urn:cts:cwkb:2817.9022'
p2143
aS'urn:cts:cwkb:2817.9023'
p2144
aS'urn:cts:cwkb:2818.9025'
p2145
aS'urn:cts:cwkb:2819.9026'
p2146
aS'urn:cts:cwkb:2820.9027'
p2147
aS'urn:cts:cwkb:2821.9028'
p2148
aS'urn:cts:cwkb:2822.9029'
p2149
aS'urn:cts:cwkb:2823.9030'
p2150
aS'urn:cts:cwkb:2824.9031'
p2151
aS'urn:cts:cwkb:2826.9037'
p2152
aS'urn:cts:cwkb:2829.9046'
p2153
aS'urn:cts:cwkb:2829.9048'
p2154
aS'urn:cts:cwkb:2829.9050'
p2155
aS'urn:cts:cwkb:2829.9045'
p2156
aS'urn:cts:cwkb:2829.9047'
p2157
aS'urn:cts:cwkb:2829.9049'
p2158
aS'urn:cts:cwkb:2830.9051'
p2159
aS'urn:cts:cwkb:2831.9053'
p2160
aS'urn:cts:cwkb:2832.9054'
p2161
aS'urn:cts:cwkb:2833.9055'
p2162
aS'urn:cts:cwkb:2834.9056'
p2163
aS'urn:cts:cwkb:2834.9058'
p2164
aS'urn:cts:cwkb:2834.9057'
p2165
aS'urn:cts:cwkb:2835.9060'
p2166
aS'urn:cts:cwkb:2835.9059'
p2167
aS'urn:cts:cwkb:2837.9061'
p2168
aS'urn:cts:cwkb:2837.9062'
p2169
aS'urn:cts:cwkb:2840.9066'
p2170
aS'urn:cts:cwkb:2841.9069'
p2171
aS'urn:cts:cwkb:2842.9077'
p2172
aS'urn:cts:cwkb:2842.9072'
p2173
aS'urn:cts:cwkb:2842.9074'
p2174
aS'urn:cts:cwkb:2842.9076'
p2175
aS'urn:cts:cwkb:2842.9073'
p2176
aS'urn:cts:cwkb:2842.9078'
p2177
aS'urn:cts:cwkb:2842.9075'
p2178
aS'urn:cts:cwkb:2843.9079'
p2179
aS'urn:cts:cwkb:2844.9084'
p2180
aS'urn:cts:cwkb:2845.9085'
p2181
aS'urn:cts:latinLit:stoa0023.stoa001'
p2182
aS'urn:cts:greekLit:tlg0548.tlg002'
p2183
aS'urn:cts:greekLit:tlg0548.tlg001'
p2184
aS'urn:cts:cwkb:2848.9094'
p2185
aS'urn:cts:cwkb:2849.9099'
p2186
aS'urn:cts:cwkb:2849.9101'
p2187
aS'urn:cts:cwkb:2849.9098'
p2188
aS'urn:cts:cwkb:2849.9100'
p2189
aS'urn:cts:cwkb:2849.9102'
p2190
aS'urn:cts:cwkb:2849.9097'
p2191
aS'urn:cts:cwkb:2849.9095'
p2192
aS'urn:cts:cwkb:2849.9096'
p2193
aS'urn:cts:cwkb:2850.9103'
p2194
aS'urn:cts:cwkb:2850.9605'
p2195
aS'urn:cts:cwkb:2850.9600'
p2196
aS'urn:cts:cwkb:2850.9578'
p2197
aS'urn:cts:cwkb:2850.9593'
p2198
aS'urn:cts:cwkb:2850.9598'
p2199
aS'urn:cts:cwkb:2850.9586'
p2200
aS'urn:cts:cwkb:2850.9594'
p2201
aS'urn:cts:cwkb:2850.9577'
p2202
aS'urn:cts:cwkb:2850.9599'
p2203
aS'urn:cts:cwkb:2850.9597'
p2204
aS'urn:cts:cwkb:2850.9576'
p2205
aS'urn:cts:cwkb:2850.9601'
p2206
aS'urn:cts:cwkb:2850.9602'
p2207
aS'urn:cts:cwkb:2850.9592'
p2208
aS'urn:cts:cwkb:2850.9587'
p2209
aS'urn:cts:cwkb:2850.9595'
p2210
aS'urn:cts:cwkb:2850.9596'
p2211
aS'urn:cts:cwkb:2850.9589'
p2212
aS'urn:cts:cwkb:2850.9588'
p2213
aS'urn:cts:cwkb:2850.9603'
p2214
aS'urn:cts:cwkb:2850.9584'
p2215
aS'urn:cts:cwkb:2850.9591'
p2216
aS'urn:cts:cwkb:2850.9583'
p2217
aS'urn:cts:cwkb:2850.9604'
p2218
aS'urn:cts:cwkb:2850.9580'
p2219
aS'urn:cts:cwkb:2850.9585'
p2220
aS'urn:cts:cwkb:2850.9590'
p2221
aS'urn:cts:cwkb:2850.9582'
p2222
aS'urn:cts:cwkb:2850.9579'
p2223
aS'urn:cts:cwkb:2850.9581'
p2224
aS'urn:cts:cwkb:2851.9104'
p2225
aS'urn:cts:cwkb:2852.9107'
p2226
aS'urn:cts:cwkb:2854.9111'
p2227
aS'urn:cts:cwkb:2855.9112'
p2228
aS'urn:cts:cwkb:2855.9113'
p2229
aS'urn:cts:cwkb:2856.9114'
p2230
aS'urn:cts:cwkb:2857.9115'
p2231
aS'urn:cts:cwkb:2858.9349'
p2232
aS'urn:cts:cwkb:2858.9523'
p2233
aS'urn:cts:cwkb:2858.9239'
p2234
aS'urn:cts:cwkb:2858.9238'
p2235
aS'urn:cts:cwkb:2858.9116'
p2236
aS'urn:cts:cwkb:2859.9118'
p2237
aS'urn:cts:cwkb:2860.9478'
p2238
aS'urn:cts:cwkb:2860.9120'
p2239
aS'urn:cts:cwkb:2861.9121'
p2240
aS'urn:cts:cwkb:2862.9122'
p2241
aS'urn:cts:cwkb:2864.8276'
p2242
aS'urn:cts:cwkb:2864.9125'
p2243
aS'urn:cts:cwkb:2864.2688'
p2244
aS'urn:cts:cwkb:2864.8238'
p2245
aS'urn:cts:cwkb:2865.9126'
p2246
aS'urn:cts:cwkb:2866.9127'
p2247
aS'urn:cts:cwkb:2867.9128'
p2248
aS'urn:cts:cwkb:2868.9129'
p2249
aS'urn:cts:cwkb:2869.9130'
p2250
aS'urn:cts:cwkb:2870.9131'
p2251
aS'urn:cts:cwkb:2871.9132'
p2252
aS'urn:cts:cwkb:2872.9133'
p2253
aS'urn:cts:cwkb:2873.9135'
p2254
aS'urn:cts:cwkb:2874.9136'
p2255
aS'urn:cts:cwkb:2875.9137'
p2256
aS'urn:cts:cwkb:2876.9138'
p2257
aS'urn:cts:cwkb:2877.9140'
p2258
aS'urn:cts:cwkb:2878.9141'
p2259
aS'urn:cts:cwkb:2879.9142'
p2260
aS'urn:cts:cwkb:2880.9144'
p2261
aS'urn:cts:cwkb:2881.9145'
p2262
aS'urn:cts:cwkb:2882.9146'
p2263
aS'urn:cts:cwkb:2883.9147'
p2264
aS'urn:cts:cwkb:2885.9151'
p2265
aS'urn:cts:cwkb:2886.9152'
p2266
aS'urn:cts:cwkb:2887.9153'
p2267
aS'urn:cts:cwkb:2888.9154'
p2268
aS'urn:cts:cwkb:2890.9156'
p2269
aS'urn:cts:cwkb:2891.9157'
p2270
aS'urn:cts:cwkb:2892.9158'
p2271
aS'urn:cts:cwkb:2893.9159'
p2272
aS'urn:cts:cwkb:2894.9160'
p2273
aS'urn:cts:cwkb:2895.9161'
p2274
aS'urn:cts:cwkb:2896.9162'
p2275
aS'urn:cts:cwkb:2897.9185'
p2276
aS'urn:cts:cwkb:2897.9163'
p2277
aS'urn:cts:cwkb:2898.9164'
p2278
aS'urn:cts:cwkb:2899.9165'
p2279
aS'urn:cts:cwkb:2900.9166'
p2280
aS'urn:cts:cwkb:2901.9169'
p2281
aS'urn:cts:cwkb:2902.9170'
p2282
aS'urn:cts:cwkb:2903.9171'
p2283
aS'urn:cts:cwkb:2904.9172'
p2284
aS'urn:cts:cwkb:2905.9177'
p2285
aS'urn:cts:cwkb:2906.9178'
p2286
aS'urn:cts:cwkb:2907.9179'
p2287
aS'urn:cts:cwkb:2908.9180'
p2288
aS'urn:cts:cwkb:2909.9452'
p2289
aS'urn:cts:cwkb:2909.9182'
p2290
aS'urn:cts:cwkb:2909.9453'
p2291
aS'urn:cts:cwkb:2910.9183'
p2292
aS'urn:cts:cwkb:2911.843'
p2293
aS'urn:cts:greekLit:tlg0560.tlg001'
p2294
aS'urn:cts:greekLit:tlg0562.tlg001'
p2295
aS'urn:cts:cwkb:2913.800'
p2296
aS'urn:cts:cwkb:2914.4525'
p2297
aS'urn:cts:cwkb:2915.9196'
p2298
aS'urn:cts:cwkb:2916.9199'
p2299
aS'urn:cts:cwkb:2917.9200'
p2300
aS'urn:cts:cwkb:2919.9213'
p2301
aS'urn:cts:cwkb:2920.9214'
p2302
aS'urn:cts:cwkb:2921.9215'
p2303
aS'urn:cts:cwkb:2922.9216'
p2304
aS'urn:cts:cwkb:2923.9218'
p2305
aS'urn:cts:cwkb:2924.9219'
p2306
aS'urn:cts:cwkb:2925.9220'
p2307
aS'urn:cts:cwkb:2926.9221'
p2308
aS'urn:cts:cwkb:2930.9227'
p2309
aS'urn:cts:cwkb:2931.9228'
p2310
aS'urn:cts:cwkb:2932.9306'
p2311
aS'urn:cts:cwkb:2933.9230'
p2312
aS'urn:cts:cwkb:2934.9231'
p2313
aS'urn:cts:cwkb:2935.9232'
p2314
aS'urn:cts:cwkb:2936.9233'
p2315
aS'urn:cts:cwkb:2938.9235'
p2316
aS'urn:cts:cwkb:2941.9242'
p2317
aS'urn:cts:cwkb:2941.9243'
p2318
aS'urn:cts:cwkb:2941.9240'
p2319
aS'urn:cts:cwkb:2941.9241'
p2320
aS'urn:cts:cwkb:2942.9244'
p2321
aS'urn:cts:cwkb:2944.9247'
p2322
aS'urn:cts:cwkb:2945.9248'
p2323
aS'urn:cts:cwkb:2949.9255'
p2324
aS'urn:cts:cwkb:2950.9257'
p2325
aS'urn:cts:cwkb:2951.9259'
p2326
aS'urn:cts:cwkb:2952.9262'
p2327
aS'urn:cts:cwkb:2960.9281'
p2328
aS'urn:cts:cwkb:2961.9283'
p2329
aS'urn:cts:cwkb:2961.9310'
p2330
aS'urn:cts:cwkb:2961.9282'
p2331
aS'urn:cts:cwkb:2962.9477'
p2332
aS'urn:cts:cwkb:2962.9285'
p2333
aS'urn:cts:cwkb:2963.9286'
p2334
aS'urn:cts:cwkb:2964.9288'
p2335
aS'urn:cts:cwkb:2968.9299'
p2336
aS'urn:cts:cwkb:2968.9298'
p2337
aS'urn:cts:cwkb:2970.9304'
p2338
aS'urn:cts:cwkb:2972.9309'
p2339
aS'urn:cts:cwkb:2978.9321'
p2340
aS'urn:cts:cwkb:2979.9322'
p2341
aS'urn:cts:cwkb:2980.9323'
p2342
aS'urn:cts:cwkb:2982.9327'
p2343
aS'urn:cts:cwkb:2982.9326'
p2344
aS'urn:cts:cwkb:2985.9428'
p2345
aS'urn:cts:cwkb:2985.9330'
p2346
aS'urn:cts:cwkb:2985.9331'
p2347
aS'urn:cts:cwkb:2988.9337'
p2348
aS'urn:cts:cwkb:2989.9338'
p2349
aS'urn:cts:cwkb:2990.9339'
p2350
aS'urn:cts:cwkb:2991.9340'
p2351
aS'urn:cts:cwkb:2992.9341'
p2352
aS'urn:cts:cwkb:2993.9342'
p2353
aS'urn:cts:cwkb:2995.9346'
p2354
aS'urn:cts:cwkb:2999.9350'
p2355
aS'urn:cts:cwkb:3002.9356'
p2356
aS'urn:cts:cwkb:3003.9359'
p2357
aS'urn:cts:cwkb:3004.9360'
p2358
aS'urn:cts:cwkb:3007.9375'
p2359
aS'urn:cts:cwkb:3012.9384'
p2360
aS'urn:cts:cwkb:3014.9420'
p2361
aS'urn:cts:cwkb:3014.9421'
p2362
aS'urn:cts:cwkb:3017.9429'
p2363
aS'urn:cts:cwkb:3020.9432'
p2364
aS'urn:cts:cwkb:3021.9433'
p2365
aS'urn:cts:cwkb:3022.9434'
p2366
aS'urn:cts:cwkb:3024.9436'
p2367
aS'urn:cts:cwkb:3026.9440'
p2368
aS'urn:cts:cwkb:3027.9380'
p2369
aS'urn:cts:cwkb:3029.9441'
p2370
aS'urn:cts:cwkb:3030.9422'
p2371
aS'urn:cts:cwkb:3030.9425'
p2372
aS'urn:cts:cwkb:3030.9423'
p2373
aS'urn:cts:cwkb:3030.9426'
p2374
aS'urn:cts:cwkb:3030.9424'
p2375
aS'urn:cts:cwkb:3030.9427'
p2376
aS'urn:cts:greekLit:tlg7000.tlg001'
p2377
aS'urn:cts:cwkb:3032.9445'
p2378
aS'urn:cts:cwkb:3033.9449'
p2379
aS'urn:cts:cwkb:3033.9497'
p2380
aS'urn:cts:cwkb:3034.9454'
p2381
aS'urn:cts:cwkb:3035.9455'
p2382
aS'urn:cts:cwkb:3036.9456'
p2383
aS'urn:cts:cwkb:3037.9457'
p2384
aS'urn:cts:cwkb:3038.9458'
p2385
aS'urn:cts:cwkb:3039.9460'
p2386
aS'urn:cts:cwkb:3040.9461'
p2387
aS'urn:cts:cwkb:3041.9462'
p2388
aS'urn:cts:cwkb:3042.9463'
p2389
aS'urn:cts:cwkb:3043.9465'
p2390
aS'urn:cts:cwkb:3044.9468'
p2391
aS'urn:cts:cwkb:3045.9469'
p2392
aS'urn:cts:cwkb:3046.9472'
p2393
aS'urn:cts:cwkb:3047.9473'
p2394
aS'urn:cts:cwkb:3048.9475'
p2395
aS'urn:cts:cwkb:3049.9476'
p2396
aS'urn:cts:cwkb:3050.9479'
p2397
aS'urn:cts:cwkb:3051.9480'
p2398
aS'urn:cts:cwkb:3052.9482'
p2399
aS'urn:cts:cwkb:3053.9484'
p2400
aS'urn:cts:cwkb:3054.9485'
p2401
aS'urn:cts:cwkb:3055.9486'
p2402
aS'urn:cts:cwkb:3056.9487'
p2403
aS'urn:cts:cwkb:3057.9488'
p2404
aS'urn:cts:cwkb:3058.9489'
p2405
aS'urn:cts:cwkb:3059.9490'
p2406
aS'urn:cts:cwkb:3060.9491'
p2407
aS'urn:cts:cwkb:3061.9492'
p2408
aS'urn:cts:cwkb:3062.9493'
p2409
aS'urn:cts:cwkb:3063.9495'
p2410
aS'urn:cts:cwkb:3064.9499'
p2411
aS'urn:cts:cwkb:3065.9500'
p2412
aS'urn:cts:cwkb:3066.9501'
p2413
aS'urn:cts:cwkb:3067.9502'
p2414
aS'urn:cts:cwkb:3068.9503'
p2415
aS'urn:cts:cwkb:3069.9504'
p2416
aS'urn:cts:cwkb:3070.9505'
p2417
aS'urn:cts:cwkb:3071.9506'
p2418
aS'urn:cts:cwkb:3072.9507'
p2419
aS'urn:cts:cwkb:3073.9508'
p2420
aS'urn:cts:cwkb:3074.9510'
p2421
aS'urn:cts:cwkb:3075.9513'
p2422
aS'urn:cts:cwkb:3076.9514'
p2423
aS'urn:cts:cwkb:3078.9516'
p2424
aS'urn:cts:cwkb:3079.9517'
p2425
aS'urn:cts:cwkb:3080.9518'
p2426
aS'urn:cts:cwkb:3081.9519'
p2427
aS'urn:cts:cwkb:3082.9520'
p2428
aS'urn:cts:cwkb:3083.9521'
p2429
aS'urn:cts:cwkb:3084.9522'
p2430
aS'urn:cts:cwkb:3085.9526'
p2431
aS'urn:cts:cwkb:3086.9527'
p2432
aS'urn:cts:cwkb:3087.9528'
p2433
aS'urn:cts:cwkb:3088.9530'
p2434
aS'urn:cts:cwkb:3089.9531'
p2435
aS'urn:cts:cwkb:3090.9532'
p2436
aS'urn:cts:cwkb:3091.9533'
p2437
aS'urn:cts:cwkb:3092.9534'
p2438
aS'urn:cts:cwkb:3093.9535'
p2439
aS'urn:cts:cwkb:3094.9539'
p2440
aS'urn:cts:cwkb:3095.9542'
p2441
aS'urn:cts:cwkb:3096.9543'
p2442
aS'urn:cts:cwkb:3097.9544'
p2443
aS'urn:cts:cwkb:3098.9545'
p2444
aS'urn:cts:cwkb:3099.9547'
p2445
aS'urn:cts:cwkb:3100.9548'
p2446
aS'urn:cts:cwkb:3101.9551'
p2447
aS'urn:cts:cwkb:3102.9552'
p2448
aS'urn:cts:cwkb:3103.9553'
p2449
aS'urn:cts:cwkb:3104.9554'
p2450
aS'urn:cts:cwkb:3105.9555'
p2451
aS'urn:cts:cwkb:3106.9559'
p2452
aS'urn:cts:cwkb:3107.9560'
p2453
aS'urn:cts:cwkb:3108.9561'
p2454
aS'urn:cts:cwkb:3109.9563'
p2455
aS'urn:cts:cwkb:3110.9564'
p2456
aS'urn:cts:cwkb:3111.9565'
p2457
aS'urn:cts:cwkb:3112.9567'
p2458
aS'urn:cts:cwkb:3114.9571'
p2459
aS'urn:cts:cwkb:3115.9573'
p2460
aS'urn:cts:cwkb:3116.9613'
p2461
aS'urn:cts:cwkb:3117.9615'
p2462
aS'urn:cts:cwkb:3118.9617'
p2463
aS'urn:cts:cwkb:3119.9618'
p2464
aS'urn:cts:cwkb:3120.9622'
p2465
aS'urn:cts:cwkb:3121.9624'
p2466
aS'urn:cts:cwkb:357.731'
p2467
aS'urn:cts:cwkb:358.732'
p2468
aS'urn:cts:cwkb:358.733'
p2469
aS'urn:cts:cwkb:358.734'
p2470
aS'urn:cts:cwkb:359.735'
p2471
aS'urn:cts:cwkb:360.736'
p2472
aS'urn:cts:cwkb:361.737'
p2473
aS'urn:cts:cwkb:362.738'
p2474
aS'urn:cts:cwkb:363.739'
p2475
aS'urn:cts:cwkb:364.741'
p2476
aS'urn:cts:cwkb:364.740'
p2477
aS'urn:cts:cwkb:365.742'
p2478
aS'urn:cts:cwkb:367.744'
p2479
aS'urn:cts:cwkb:368.746'
p2480
aS'urn:cts:cwkb:368.745'
p2481
aS'urn:cts:cwkb:368.747'
p2482
aS'urn:cts:cwkb:369.748'
p2483
aS'urn:cts:cwkb:370.749'
p2484
aS'urn:cts:cwkb:371.753'
p2485
aS'urn:cts:cwkb:372.754'
p2486
aS'urn:cts:cwkb:373.755'
p2487
aS'urn:cts:cwkb:374.756'
p2488
aS'urn:cts:cwkb:375.759'
p2489
aS'urn:cts:cwkb:375.757'
p2490
aS'urn:cts:cwkb:375.758'
p2491
aS'urn:cts:cwkb:376.760'
p2492
aS'urn:cts:cwkb:377.766'
p2493
aS'urn:cts:cwkb:377.763'
p2494
aS'urn:cts:cwkb:377.767'
p2495
aS'urn:cts:cwkb:377.765'
p2496
aS'urn:cts:cwkb:377.762'
p2497
aS'urn:cts:cwkb:377.768'
p2498
aS'urn:cts:cwkb:377.9148'
p2499
aS'urn:cts:cwkb:377.761'
p2500
aS'urn:cts:cwkb:377.764'
p2501
aS'urn:cts:cwkb:377.769'
p2502
aS'urn:cts:cwkb:378.770'
p2503
aS'urn:cts:cwkb:379.771'
p2504
aS'urn:cts:cwkb:380.772'
p2505
aS'urn:cts:cwkb:381.773'
p2506
aS'urn:cts:cwkb:382.774'
p2507
aS'urn:cts:cwkb:382.775'
p2508
aS'urn:cts:cwkb:382.776'
p2509
aS'urn:cts:cwkb:382.777'
p2510
aS'urn:cts:cwkb:382.778'
p2511
aS'urn:cts:cwkb:383.779'
p2512
aS'urn:cts:cwkb:384.781'
p2513
aS'urn:cts:cwkb:384.780'
p2514
aS'urn:cts:cwkb:385.782'
p2515
aS'urn:cts:cwkb:386.783'
p2516
aS'urn:cts:cwkb:387.784'
p2517
aS'urn:cts:cwkb:388.785'
p2518
aS'urn:cts:cwkb:388.786'
p2519
aS'urn:cts:cwkb:389.787'
p2520
aS'urn:cts:cwkb:390.788'
p2521
aS'urn:cts:cwkb:391.789'
p2522
aS'urn:cts:cwkb:393.791'
p2523
aS'urn:cts:cwkb:393.793'
p2524
aS'urn:cts:cwkb:393.798'
p2525
aS'urn:cts:cwkb:393.796'
p2526
aS'urn:cts:cwkb:393.795'
p2527
aS'urn:cts:cwkb:393.792'
p2528
aS'urn:cts:cwkb:393.797'
p2529
aS'urn:cts:cwkb:393.794'
p2530
aS'urn:cts:cwkb:394.9470'
p2531
aS'urn:cts:cwkb:394.8279'
p2532
aS'urn:cts:cwkb:394.799'
p2533
aS'urn:cts:cwkb:394.8281'
p2534
aS'urn:cts:cwkb:396.801'
p2535
aS'urn:cts:cwkb:397.802'
p2536
aS'urn:cts:cwkb:398.803'
p2537
aS'urn:cts:cwkb:399.804'
p2538
aS'urn:cts:cwkb:400.805'
p2539
aS'urn:cts:cwkb:400.806'
p2540
aS'urn:cts:cwkb:401.807'
p2541
aS'urn:cts:cwkb:402.808'
p2542
aS'urn:cts:cwkb:403.810'
p2543
aS'urn:cts:cwkb:404.811'
p2544
aS'urn:cts:cwkb:405.812'
p2545
aS'urn:cts:cwkb:406.813'
p2546
aS'urn:cts:cwkb:407.814'
p2547
aS'urn:cts:cwkb:408.822'
p2548
aS'urn:cts:cwkb:408.818'
p2549
aS'urn:cts:latinLit:phi0448.phi002'
p2550
aS'urn:cts:cwkb:408.821'
p2551
aS'urn:cts:cwkb:408.820'
p2552
aS'urn:cts:latinLit:phi0448.phi001'
p2553
aS'urn:cts:cwkb:408.817'
p2554
aS'urn:cts:cwkb:408.819'
p2555
aS'urn:cts:cwkb:409.823'
p2556
aS'urn:cts:cwkb:410.824'
p2557
aS'urn:cts:cwkb:411.825'
p2558
aS'urn:cts:cwkb:412.826'
p2559
aS'urn:cts:cwkb:413.827'
p2560
aS'urn:cts:cwkb:414.828'
p2561
aS'urn:cts:cwkb:415.829'
p2562
aS'urn:cts:cwkb:416.831'
p2563
aS'urn:cts:cwkb:416.830'
p2564
aS'urn:cts:cwkb:417.832'
p2565
aS'urn:cts:cwkb:418.834'
p2566
aS'urn:cts:cwkb:418.833'
p2567
aS'urn:cts:cwkb:419.835'
p2568
aS'urn:cts:cwkb:420.836'
p2569
aS'urn:cts:cwkb:421.837'
p2570
aS'urn:cts:cwkb:422.842'
p2571
aS'urn:cts:cwkb:423.1903'
p2572
aS'urn:cts:cwkb:423.1902'
p2573
aS'urn:cts:cwkb:424.847'
p2574
aS'urn:cts:cwkb:424.853'
p2575
aS'urn:cts:cwkb:424.855'
p2576
aS'urn:cts:cwkb:424.846'
p2577
aS'urn:cts:cwkb:424.844'
p2578
aS'urn:cts:cwkb:424.850'
p2579
aS'urn:cts:cwkb:424.854'
p2580
aS'urn:cts:cwkb:424.849'
p2581
aS'urn:cts:cwkb:424.851'
p2582
aS'urn:cts:cwkb:424.852'
p2583
aS'urn:cts:cwkb:424.845'
p2584
aS'urn:cts:cwkb:424.848'
p2585
aS'urn:cts:cwkb:425.856'
p2586
aS'urn:cts:cwkb:426.857'
p2587
aS'urn:cts:cwkb:427.859'
p2588
aS'urn:cts:latinLit:phi0472.phi001'
p2589
aS'urn:cts:cwkb:428.860'
p2590
aS'urn:cts:cwkb:429.863'
p2591
aS'urn:cts:cwkb:429.861'
p2592
aS'urn:cts:latinLit:phi0836.phi002'
p2593
aS'urn:cts:cwkb:430.8565'
p2594
aS'urn:cts:cwkb:430.8566'
p2595
aS'urn:cts:cwkb:430.9390'
p2596
aS'urn:cts:cwkb:430.864'
p2597
aS'urn:cts:latinLit:phi0474.phi010'
p2598
aS'urn:cts:cwkb:431.928'
p2599
aS'urn:cts:latinLit:phi0474.phi014'
p2600
aS'urn:cts:latinLit:phi0474.phi018'
p2601
aS'urn:cts:latinLit:phi0474.phi030'
p2602
aS'urn:cts:latinLit:phi0474.phi016'
p2603
aS'urn:cts:latinLit:phi0474.phi009'
p2604
aS'urn:cts:latinLit:phi0474.phi023'
p2605
aS'urn:cts:latinLit:phi0474.phi006'
p2606
aS'urn:cts:latinLit:phi0474.phi031'
p2607
aS'urn:cts:latinLit:phi0474.phi002'
p2608
aS'urn:cts:latinLit:phi0474.phi008'
p2609
aS'urn:cts:cwkb:431.925'
p2610
aS'urn:cts:cwkb:431.903'
p2611
aS'urn:cts:latinLit:phi0474.phi055'
p2612
aS'urn:cts:cwkb:431.912'
p2613
aS'urn:cts:latinLit:phi0474.phi051'
p2614
aS'urn:cts:latinLit:phi0474.phi007'
p2615
aS'urn:cts:cwkb:431.918'
p2616
aS'urn:cts:cwkb:431.927'
p2617
aS'urn:cts:latinLit:phi0474.phi025'
p2618
aS'urn:cts:latinLit:phi0474.phi022'
p2619
aS'urn:cts:latinLit:phi0474.phi052'
p2620
aS'urn:cts:latinLit:phi0474.phi021'
p2621
aS'urn:cts:cwkb:431.932'
p2622
aS'urn:cts:latinLit:phi0474.phi012'
p2623
aS'urn:cts:cwkb:431.9509'
p2624
aS'urn:cts:cwkb:431.913'
p2625
aS'urn:cts:cwkb:431.924'
p2626
aS'urn:cts:latinLit:phi0474.phi005'
p2627
aS'urn:cts:cwkb:431.931'
p2628
aS'urn:cts:latinLit:phi0474.phi013'
p2629
aS'urn:cts:cwkb:431.902'
p2630
aS'urn:cts:latinLit:phi0474.phi033'
p2631
aS'urn:cts:cwkb:431.914'
p2632
aS'urn:cts:latinLit:phi0474.phi015'
p2633
aS'urn:cts:latinLit:phi0474.phi053'
p2634
aS'urn:cts:cwkb:431.933'
p2635
aS'urn:cts:cwkb:431.934'
p2636
aS'urn:cts:cwkb:431.926'
p2637
aS'urn:cts:cwkb:431.930'
p2638
aS'urn:cts:latinLit:phi0474.phi057'
p2639
aS'urn:cts:cwkb:431.909'
p2640
aS'urn:cts:latinLit:phi0474.phi003'
p2641
aS'urn:cts:latinLit:phi0474.phi004'
p2642
aS'urn:cts:latinLit:phi0474.phi034'
p2643
aS'urn:cts:cwkb:431.936'
p2644
aS'urn:cts:latinLit:phi0474.phi058'
p2645
aS'urn:cts:latinLit:phi0474.phi011'
p2646
aS'urn:cts:latinLit:phi0474.phi020'
p2647
aS'urn:cts:cwkb:431.910'
p2648
aS'urn:cts:cwkb:431.901'
p2649
aS'urn:cts:latinLit:phi0474.phi017'
p2650
aS'urn:cts:cwkb:431.906'
p2651
aS'urn:cts:cwkb:431.935'
p2652
aS'urn:cts:latinLit:phi0474.phi019'
p2653
aS'urn:cts:latinLit:phi0474.phi032'
p2654
aS'urn:cts:latinLit:phi0474.phi035'
p2655
aS'urn:cts:cwkb:431.905'
p2656
aS'urn:cts:latinLit:phi0474.phi001'
p2657
aS'urn:cts:latinLit:phi0474.phi059'
p2658
aS'urn:cts:cwkb:431.900'
p2659
aS'urn:cts:latinLit:phi0474.phi027'
p2660
aS'urn:cts:latinLit:phi0474.phi028'
p2661
aS'urn:cts:cwkb:431.911'
p2662
aS'urn:cts:latinLit:phi0474.phi024'
p2663
aS'urn:cts:cwkb:431.908'
p2664
aS'urn:cts:cwkb:431.907'
p2665
aS'urn:cts:latinLit:phi0474.phi026'
p2666
aS'urn:cts:cwkb:431.904'
p2667
aS'urn:cts:latinLit:phi0474.phi056'
p2668
aS'urn:cts:cwkb:431.929'
p2669
aS'urn:cts:latinLit:phi0474.phi029'
p2670
aS'urn:cts:cwkb:432.937'
p2671
aS'urn:cts:cwkb:433.938'
p2672
aS'urn:cts:cwkb:434.940'
p2673
aS'urn:cts:cwkb:434.939'
p2674
aS'urn:cts:cwkb:435.941'
p2675
aS'urn:cts:cwkb:436.942'
p2676
aS'urn:cts:cwkb:437.943'
p2677
aS'urn:cts:cwkb:438.944'
p2678
aS'urn:cts:cwkb:439.945'
p2679
aS'urn:cts:cwkb:440.946'
p2680
aS'urn:cts:cwkb:441.947'
p2681
aS'urn:cts:cwkb:442.948'
p2682
aS'urn:cts:cwkb:442.949'
p2683
aS'urn:cts:cwkb:443.950'
p2684
aS'urn:cts:cwkb:444.954'
p2685
aS'urn:cts:cwkb:446.957'
p2686
aS'urn:cts:cwkb:447.958'
p2687
aS'urn:cts:cwkb:448.959'
p2688
aS'urn:cts:cwkb:449.960'
p2689
aS'urn:cts:cwkb:450.961'
p2690
aS'urn:cts:cwkb:451.962'
p2691
aS'urn:cts:cwkb:452.963'
p2692
aS'urn:cts:cwkb:453.964'
p2693
aS'urn:cts:cwkb:454.965'
p2694
aS'urn:cts:cwkb:455.966'
p2695
aS'urn:cts:cwkb:456.967'
p2696
aS'urn:cts:cwkb:457.969'
p2697
aS'urn:cts:cwkb:457.968'
p2698
aS'urn:cts:cwkb:458.970'
p2699
aS'urn:cts:cwkb:459.971'
p2700
aS'urn:cts:cwkb:460.972'
p2701
aS'urn:cts:cwkb:461.973'
p2702
aS'urn:cts:cwkb:462.977'
p2703
aS'urn:cts:cwkb:462.980'
p2704
aS'urn:cts:cwkb:462.976'
p2705
aS'urn:cts:cwkb:462.974'
p2706
aS'urn:cts:cwkb:462.979'
p2707
aS'urn:cts:cwkb:462.8046'
p2708
aS'urn:cts:cwkb:462.975'
p2709
aS'urn:cts:cwkb:462.978'
p2710
aS'urn:cts:cwkb:463.981'
p2711
aS'urn:cts:cwkb:464.982'
p2712
aS'urn:cts:cwkb:465.983'
p2713
aS'urn:cts:cwkb:466.984'
p2714
aS'urn:cts:cwkb:467.986'
p2715
aS'urn:cts:cwkb:467.985'
p2716
aS'urn:cts:cwkb:468.988'
p2717
aS'urn:cts:cwkb:468.987'
p2718
aS'urn:cts:cwkb:469.989'
p2719
aS'urn:cts:cwkb:470.990'
p2720
aS'urn:cts:cwkb:471.4379'
p2721
aS'urn:cts:cwkb:472.992'
p2722
aS'urn:cts:cwkb:472.993'
p2723
aS'urn:cts:cwkb:472.994'
p2724
aS'urn:cts:cwkb:472.995'
p2725
aS'urn:cts:cwkb:472.996'
p2726
aS'urn:cts:cwkb:473.997'
p2727
aS'urn:cts:cwkb:474.999'
p2728
aS'urn:cts:cwkb:474.1000'
p2729
aS'urn:cts:cwkb:474.1002'
p2730
aS'urn:cts:cwkb:474.1001'
p2731
aS'urn:cts:cwkb:474.1003'
p2732
aS'urn:cts:cwkb:474.998'
p2733
aS'urn:cts:cwkb:475.1019'
p2734
aS'urn:cts:cwkb:475.1020'
p2735
aS'urn:cts:cwkb:475.1013'
p2736
aS'urn:cts:cwkb:475.1009'
p2737
aS'urn:cts:cwkb:475.1011'
p2738
aS'urn:cts:cwkb:475.1018'
p2739
aS'urn:cts:cwkb:475.1014'
p2740
aS'urn:cts:cwkb:475.1007'
p2741
aS'urn:cts:cwkb:475.1012'
p2742
aS'urn:cts:cwkb:475.1010'
p2743
aS'urn:cts:cwkb:475.1004'
p2744
aS'urn:cts:cwkb:475.1017'
p2745
aS'urn:cts:cwkb:475.1006'
p2746
aS'urn:cts:cwkb:475.1015'
p2747
aS'urn:cts:cwkb:475.1016'
p2748
aS'urn:cts:cwkb:475.1005'
p2749
aS'urn:cts:cwkb:475.1008'
p2750
aS'urn:cts:cwkb:476.1021'
p2751
aS'urn:cts:cwkb:477.1022'
p2752
aS'urn:cts:cwkb:478.1024'
p2753
aS'urn:cts:cwkb:478.1023'
p2754
aS'urn:cts:cwkb:479.1025'
p2755
aS'urn:cts:cwkb:479.1026'
p2756
aS'urn:cts:cwkb:480.1027'
p2757
aS'urn:cts:cwkb:480.1028'
p2758
aS'urn:cts:cwkb:481.9167'
p2759
aS'urn:cts:cwkb:482.1030'
p2760
aS'urn:cts:cwkb:483.1032'
p2761
aS'urn:cts:cwkb:483.1031'
p2762
aS'urn:cts:latinLit:phi1254.phi001'
p2763
aS'urn:cts:cwkb:485.1034'
p2764
aS'urn:cts:cwkb:486.1035'
p2765
aS'urn:cts:cwkb:486.1037'
p2766
aS'urn:cts:cwkb:486.1036'
p2767
aS'urn:cts:cwkb:487.1038'
p2768
aS'urn:cts:cwkb:488.1039'
p2769
aS'urn:cts:cwkb:489.1040'
p2770
aS'urn:cts:cwkb:490.1041'
p2771
aS'urn:cts:cwkb:491.1042'
p2772
aS'urn:cts:cwkb:492.1043'
p2773
aS'urn:cts:cwkb:493.1044'
p2774
aS'urn:cts:cwkb:494.1045'
p2775
aS'urn:cts:cwkb:494.1046'
p2776
aS'urn:cts:cwkb:495.1047'
p2777
aS'urn:cts:cwkb:496.9572'
p2778
aS'urn:cts:cwkb:496.1048'
p2779
aS'urn:cts:cwkb:497.1049'
p2780
aS'urn:cts:cwkb:497.1050'
p2781
aS'urn:cts:cwkb:498.1051'
p2782
aS'urn:cts:latinLit:phi0893.phi004'
p2783
aS'urn:cts:cwkb:499.1056'
p2784
aS'urn:cts:cwkb:499.1054'
p2785
aS'urn:cts:cwkb:499.1053'
p2786
aS'urn:cts:latinLit:phi0893.phi001'
p2787
aS'urn:cts:latinLit:phi0893.phi006'
p2788
aS'urn:cts:cwkb:500.1059'
p2789
aS'urn:cts:cwkb:500.1058'
p2790
aS'urn:cts:cwkb:501.1060'
p2791
aS'urn:cts:cwkb:502.1061'
p2792
aS'urn:cts:cwkb:503.1063'
p2793
aS'urn:cts:cwkb:503.1062'
p2794
aS'urn:cts:cwkb:504.1066'
p2795
aS'urn:cts:cwkb:504.1064'
p2796
aS'urn:cts:cwkb:504.1065'
p2797
aS'urn:cts:cwkb:504.9549'
p2798
aS'urn:cts:cwkb:505.1067'
p2799
aS'urn:cts:cwkb:506.1068'
p2800
aS'urn:cts:cwkb:507.1069'
p2801
aS'urn:cts:cwkb:508.1070'
p2802
aS'urn:cts:cwkb:509.1071'
p2803
aS'urn:cts:cwkb:510.1072'
p2804
aS'urn:cts:cwkb:511.1073'
p2805
aS'urn:cts:cwkb:512.1074'
p2806
aS'urn:cts:cwkb:513.1075'
p2807
aS'urn:cts:cwkb:514.1076'
p2808
aS'urn:cts:cwkb:515.1077'
p2809
aS'urn:cts:cwkb:516.1078'
p2810
aS'urn:cts:cwkb:517.1079'
p2811
aS'urn:cts:cwkb:517.1080'
p2812
aS'urn:cts:cwkb:518.9217'
p2813
aS'urn:cts:cwkb:519.1082'
p2814
aS'urn:cts:cwkb:520.1083'
p2815
aS'urn:cts:cwkb:521.1085'
p2816
aS'urn:cts:cwkb:522.1086'
p2817
aS'urn:cts:cwkb:523.1087'
p2818
aS'urn:cts:cwkb:524.1089'
p2819
aS'urn:cts:cwkb:524.1091'
p2820
aS'urn:cts:cwkb:524.1090'
p2821
aS'urn:cts:cwkb:524.1088'
p2822
aS'urn:cts:latinLit:phi0917.phi001'
p2823
aS'urn:cts:cwkb:525.1093'
p2824
aS'urn:cts:cwkb:526.1094'
p2825
aS'urn:cts:cwkb:527.1095'
p2826
aS'urn:cts:cwkb:528.1098'
p2827
aS'urn:cts:cwkb:528.1097'
p2828
aS'urn:cts:latinLit:phi0550.phi001'
p2829
aS'urn:cts:cwkb:529.1100'
p2830
aS'urn:cts:cwkb:529.1099'
p2831
aS'urn:cts:cwkb:530.1102'
p2832
aS'urn:cts:cwkb:530.1101'
p2833
aS'urn:cts:cwkb:531.1103'
p2834
aS'urn:cts:cwkb:531.1104'
p2835
aS'urn:cts:cwkb:532.1105'
p2836
aS'urn:cts:cwkb:532.1106'
p2837
aS'urn:cts:cwkb:533.1107'
p2838
aS'urn:cts:cwkb:534.1108'
p2839
aS'urn:cts:cwkb:535.1110'
p2840
aS'urn:cts:cwkb:536.1111'
p2841
aS'urn:cts:cwkb:537.1112'
p2842
aS'urn:cts:cwkb:538.1113'
p2843
aS'urn:cts:cwkb:539.1114'
p2844
aS'urn:cts:cwkb:539.1115'
p2845
aS'urn:cts:cwkb:540.1116'
p2846
aS'urn:cts:cwkb:541.1117'
p2847
aS'urn:cts:cwkb:542.1118'
p2848
aS'urn:cts:cwkb:543.1119'
p2849
aS'urn:cts:cwkb:544.1120'
p2850
aS'urn:cts:cwkb:545.1122'
p2851
aS'urn:cts:cwkb:545.1121'
p2852
aS'urn:cts:cwkb:546.1124'
p2853
aS'urn:cts:cwkb:546.1123'
p2854
aS'urn:cts:cwkb:547.1126'
p2855
aS'urn:cts:cwkb:547.1125'
p2856
aS'urn:cts:cwkb:548.1127'
p2857
aS'urn:cts:cwkb:549.1128'
p2858
aS'urn:cts:cwkb:550.8236'
p2859
aS'urn:cts:cwkb:552.1132'
p2860
aS'urn:cts:cwkb:553.1133'
p2861
aS'urn:cts:cwkb:554.1134'
p2862
aS'urn:cts:cwkb:555.1135'
p2863
aS'urn:cts:cwkb:556.1141'
p2864
aS'urn:cts:cwkb:556.1139'
p2865
aS'urn:cts:cwkb:556.1140'
p2866
aS'urn:cts:cwkb:556.1137'
p2867
aS'urn:cts:cwkb:556.1136'
p2868
aS'urn:cts:cwkb:556.1138'
p2869
aS'urn:cts:cwkb:557.1142'
p2870
aS'urn:cts:cwkb:558.1143'
p2871
aS'urn:cts:cwkb:559.1144'
p2872
aS'urn:cts:cwkb:559.1145'
p2873
aS'urn:cts:cwkb:560.1146'
p2874
aS'urn:cts:cwkb:561.1147'
p2875
aS'urn:cts:cwkb:562.1148'
p2876
aS'urn:cts:cwkb:563.1149'
p2877
aS'urn:cts:cwkb:564.1150'
p2878
aS'urn:cts:cwkb:564.1151'
p2879
aS'urn:cts:cwkb:565.1152'
p2880
aS'urn:cts:cwkb:566.1153'
p2881
aS'urn:cts:cwkb:566.1154'
p2882
aS'urn:cts:cwkb:567.1155'
p2883
aS'urn:cts:cwkb:568.1165'
p2884
aS'urn:cts:cwkb:568.1156'
p2885
aS'urn:cts:latinLit:phi0959.phi005'
p2886
aS'urn:cts:cwkb:568.1166'
p2887
aS'urn:cts:cwkb:568.1164'
p2888
aS'urn:cts:cwkb:568.1163'
p2889
aS'urn:cts:latinLit:phi0959.phi002'
p2890
aS'urn:cts:latinLit:phi0959.phi006'
p2891
aS'urn:cts:latinLit:phi0959.phi003'
p2892
aS'urn:cts:cwkb:568.1162'
p2893
aS'urn:cts:latinLit:phi0959.phi004'
p2894
aS'urn:cts:cwkb:568.1167'
p2895
aS'urn:cts:cwkb:569.1168'
p2896
aS'urn:cts:cwkb:570.1170'
p2897
aS'urn:cts:cwkb:570.1169'
p2898
aS'urn:cts:cwkb:571.1171'
p2899
aS'urn:cts:cwkb:572.1172'
p2900
aS'urn:cts:cwkb:573.1173'
p2901
aS'urn:cts:cwkb:574.1174'
p2902
aS'urn:cts:cwkb:575.1175'
p2903
aS'urn:cts:cwkb:576.1176'
p2904
aS'urn:cts:cwkb:577.1177'
p2905
aS'urn:cts:cwkb:578.1178'
p2906
aS'urn:cts:latinLit:phi0972.phi002'
p2907
aS'urn:cts:latinLit:phi0972.phi001'
p2908
aS'urn:cts:cwkb:580.1182'
p2909
aS'urn:cts:latinLit:phi0975.phi001'
p2910
aS'urn:cts:cwkb:581.1183'
p2911
aS'urn:cts:latinLit:phi0119.phi019'
p2912
aS'urn:cts:cwkb:583.1206'
p2913
aS'urn:cts:latinLit:phi0119.phi014'
p2914
aS'urn:cts:latinLit:phi0119.phi002'
p2915
aS'urn:cts:latinLit:phi0119.phi001'
p2916
aS'urn:cts:latinLit:phi0119.phi003'
p2917
aS'urn:cts:latinLit:phi0119.phi016'
p2918
aS'urn:cts:latinLit:phi0119.phi011'
p2919
aS'urn:cts:latinLit:phi0119.phi017'
p2920
aS'urn:cts:latinLit:phi0119.phi010'
p2921
aS'urn:cts:latinLit:phi0119.phi018'
p2922
aS'urn:cts:cwkb:583.1205'
p2923
aS'urn:cts:latinLit:phi0119.phi005'
p2924
aS'urn:cts:latinLit:phi0119.phi020'
p2925
aS'urn:cts:latinLit:phi0119.phi013'
p2926
aS'urn:cts:latinLit:phi0119.phi006'
p2927
aS'urn:cts:latinLit:phi0119.phi009'
p2928
aS'urn:cts:latinLit:phi0119.phi004'
p2929
aS'urn:cts:latinLit:phi0119.phi012'
p2930
aS'urn:cts:latinLit:phi0119.phi007'
p2931
aS'urn:cts:latinLit:phi0119.phi008'
p2932
aS'urn:cts:latinLit:phi0119.phi015'
p2933
aS'urn:cts:cwkb:584.1208'
p2934
aS'urn:cts:cwkb:584.1209'
p2935
aS'urn:cts:cwkb:584.1207'
p2936
aS'urn:cts:cwkb:585.1211'
p2937
aS'urn:cts:latinLit:phi0978.phi001'
p2938
aS'urn:cts:cwkb:586.1214'
p2939
aS'urn:cts:cwkb:586.1213'
p2940
aS'urn:cts:cwkb:586.1212'
p2941
aS'urn:cts:cwkb:586.1215'
p2942
aS'urn:cts:cwkb:587.1216'
p2943
aS'urn:cts:cwkb:588.1217'
p2944
aS'urn:cts:cwkb:589.1219'
p2945
aS'urn:cts:cwkb:589.1218'
p2946
aS'urn:cts:cwkb:590.1220'
p2947
aS'urn:cts:cwkb:591.1221'
p2948
aS'urn:cts:cwkb:591.1222'
p2949
aS'urn:cts:cwkb:592.1223'
p2950
aS'urn:cts:cwkb:593.1224'
p2951
aS'urn:cts:cwkb:594.1226'
p2952
aS'urn:cts:cwkb:594.1230'
p2953
aS'urn:cts:cwkb:594.1225'
p2954
aS'urn:cts:cwkb:594.1227'
p2955
aS'urn:cts:cwkb:594.1231'
p2956
aS'urn:cts:cwkb:594.1228'
p2957
aS'urn:cts:cwkb:594.1229'
p2958
aS'urn:cts:cwkb:595.1232'
p2959
aS'urn:cts:cwkb:596.1236'
p2960
aS'urn:cts:cwkb:596.1238'
p2961
aS'urn:cts:cwkb:596.1237'
p2962
aS'urn:cts:latinLit:phi0620.phi001'
p2963
aS'urn:cts:cwkb:598.1240'
p2964
aS'urn:cts:cwkb:598.8115'
p2965
aS'urn:cts:cwkb:599.1242'
p2966
aS'urn:cts:cwkb:599.1241'
p2967
aS'urn:cts:cwkb:600.1244'
p2968
aS'urn:cts:cwkb:601.1245'
p2969
aS'urn:cts:cwkb:602.1247'
p2970
aS'urn:cts:cwkb:602.1246'
p2971
aS'urn:cts:cwkb:603.1248'
p2972
aS'urn:cts:cwkb:604.1249'
p2973
aS'urn:cts:cwkb:605.1250'
p2974
aS'urn:cts:cwkb:606.1251'
p2975
aS'urn:cts:latinLit:phi0631.phi001'
p2976
aS'urn:cts:cwkb:607.1255'
p2977
aS'urn:cts:latinLit:phi0631.phi002'
p2978
aS'urn:cts:cwkb:608.1260'
p2979
aS'urn:cts:cwkb:608.1259'
p2980
aS'urn:cts:cwkb:609.1261'
p2981
aS'urn:cts:cwkb:610.1262'
p2982
aS'urn:cts:cwkb:611.1263'
p2983
aS'urn:cts:cwkb:612.1264'
p2984
aS'urn:cts:cwkb:613.1265'
p2985
aS'urn:cts:cwkb:614.1266'
p2986
aS'urn:cts:cwkb:615.1267'
p2987
aS'urn:cts:cwkb:615.1268'
p2988
aS'urn:cts:cwkb:616.1269'
p2989
aS'urn:cts:cwkb:616.1271'
p2990
aS'urn:cts:cwkb:616.1270'
p2991
aS'urn:cts:cwkb:617.1272'
p2992
aS'urn:cts:cwkb:618.1273'
p2993
aS'urn:cts:cwkb:619.1274'
p2994
aS'urn:cts:cwkb:620.9208'
p2995
aS'urn:cts:cwkb:620.1278'
p2996
aS'urn:cts:cwkb:620.1286'
p2997
aS'urn:cts:cwkb:620.9209'
p2998
aS'urn:cts:cwkb:620.9207'
p2999
aS'urn:cts:cwkb:620.9212'
p3000
aS'urn:cts:cwkb:620.1288'
p3001
aS'urn:cts:cwkb:620.9211'
p3002
aS'urn:cts:cwkb:620.4385'
p3003
aS'urn:cts:cwkb:620.1289'
p3004
aS'urn:cts:cwkb:620.1277'
p3005
aS'urn:cts:cwkb:620.1287'
p3006
aS'urn:cts:cwkb:620.1275'
p3007
aS'urn:cts:cwkb:620.1276'
p3008
aS'urn:cts:cwkb:620.1282'
p3009
aS'urn:cts:cwkb:620.1280'
p3010
aS'urn:cts:cwkb:620.9203'
p3011
aS'urn:cts:cwkb:620.1291'
p3012
aS'urn:cts:cwkb:620.9204'
p3013
aS'urn:cts:cwkb:620.9210'
p3014
aS'urn:cts:cwkb:620.1279'
p3015
aS'urn:cts:cwkb:620.9205'
p3016
aS'urn:cts:cwkb:620.1283'
p3017
aS'urn:cts:cwkb:620.1281'
p3018
aS'urn:cts:cwkb:620.9206'
p3019
aS'urn:cts:latinLit:phi1017.phi011'
p3020
aS'urn:cts:cwkb:620.1290'
p3021
aS'urn:cts:cwkb:622.1294'
p3022
aS'urn:cts:cwkb:622.1293'
p3023
aS'urn:cts:cwkb:622.1292'
p3024
aS'urn:cts:cwkb:622.1295'
p3025
aS'urn:cts:cwkb:623.1296'
p3026
aS'urn:cts:cwkb:624.1297'
p3027
aS'urn:cts:cwkb:624.1298'
p3028
aS'urn:cts:cwkb:625.1303'
p3029
aS'urn:cts:cwkb:625.1301'
p3030
aS'urn:cts:cwkb:625.1299'
p3031
aS'urn:cts:cwkb:625.1304'
p3032
aS'urn:cts:cwkb:625.1302'
p3033
aS'urn:cts:cwkb:625.1300'
p3034
aS'urn:cts:cwkb:625.1305'
p3035
aS'urn:cts:cwkb:626.1306'
p3036
aS'urn:cts:cwkb:627.1307'
p3037
aS'urn:cts:cwkb:628.1308'
p3038
aS'urn:cts:cwkb:629.1309'
p3039
aS'urn:cts:cwkb:630.1310'
p3040
aS'urn:cts:cwkb:631.1311'
p3041
aS'urn:cts:cwkb:632.1312'
p3042
aS'urn:cts:cwkb:632.1313'
p3043
aS'urn:cts:cwkb:633.1314'
p3044
aS'urn:cts:cwkb:634.1315'
p3045
aS'urn:cts:cwkb:634.1316'
p3046
aS'urn:cts:cwkb:634.1317'
p3047
aS'urn:cts:cwkb:634.1318'
p3048
aS'urn:cts:cwkb:635.1319'
p3049
aS'urn:cts:cwkb:636.1320'
p3050
aS'urn:cts:cwkb:636.1321'
p3051
aS'urn:cts:cwkb:637.1322'
p3052
aS'urn:cts:cwkb:638.9467'
p3053
aS'urn:cts:cwkb:638.4392'
p3054
aS'urn:cts:cwkb:638.4390'
p3055
aS'urn:cts:cwkb:638.1328'
p3056
aS'urn:cts:cwkb:638.1323'
p3057
aS'urn:cts:cwkb:638.4388'
p3058
aS'urn:cts:cwkb:638.1326'
p3059
aS'urn:cts:cwkb:638.1325'
p3060
aS'urn:cts:cwkb:638.4389'
p3061
aS'urn:cts:cwkb:638.1327'
p3062
aS'urn:cts:cwkb:638.9466'
p3063
aS'urn:cts:cwkb:638.1324'
p3064
aS'urn:cts:cwkb:638.4391'
p3065
aS'urn:cts:cwkb:639.1329'
p3066
aS'urn:cts:cwkb:640.1330'
p3067
aS'urn:cts:cwkb:641.1332'
p3068
aS'urn:cts:cwkb:641.1331'
p3069
aS'urn:cts:cwkb:642.1333'
p3070
aS'urn:cts:cwkb:643.1334'
p3071
aS'urn:cts:latinLit:phi1351.phi002'
p3072
aS'urn:cts:latinLit:phi1351.phi005'
p3073
aS'urn:cts:latinLit:phi1351.phi003'
p3074
aS'urn:cts:latinLit:phi1351.phi004'
p3075
aS'urn:cts:latinLit:phi1351.phi001'
p3076
aS'urn:cts:cwkb:645.1341'
p3077
aS'urn:cts:latinLit:phi0134.phi006'
p3078
aS'urn:cts:latinLit:phi0134.phi004'
p3079
aS'urn:cts:latinLit:phi0134.phi005'
p3080
aS'urn:cts:latinLit:phi0134.phi003'
p3081
aS'urn:cts:latinLit:phi0134.phi002'
p3082
aS'urn:cts:latinLit:phi0134.phi001'
p3083
aS'urn:cts:cwkb:647.1348'
p3084
aS'urn:cts:cwkb:648.1349'
p3085
aS'urn:cts:cwkb:649.1350'
p3086
aS'urn:cts:cwkb:650.1351'
p3087
aS'urn:cts:cwkb:651.1352'
p3088
aS'urn:cts:cwkb:652.1353'
p3089
aS'urn:cts:cwkb:653.1354'
p3090
aS'urn:cts:cwkb:654.1355'
p3091
aS'urn:cts:cwkb:655.1356'
p3092
aS'urn:cts:cwkb:656.1357'
p3093
aS'urn:cts:cwkb:657.1358'
p3094
aS'urn:cts:cwkb:657.1359'
p3095
aS'urn:cts:cwkb:658.1361'
p3096
aS'urn:cts:cwkb:658.1360'
p3097
aS'urn:cts:cwkb:659.1362'
p3098
aS'urn:cts:cwkb:660.1363'
p3099
aS'urn:cts:cwkb:661.1364'
p3100
aS'urn:cts:cwkb:662.1365'
p3101
aS'urn:cts:cwkb:663.1366'
p3102
aS'urn:cts:cwkb:663.9201'
p3103
aS'urn:cts:cwkb:664.1367'
p3104
aS'urn:cts:cwkb:665.1368'
p3105
aS'urn:cts:cwkb:666.1369'
p3106
aS'urn:cts:cwkb:667.1370'
p3107
aS'urn:cts:cwkb:668.1371'
p3108
aS'urn:cts:cwkb:669.1372'
p3109
aS'urn:cts:cwkb:670.1373'
p3110
aS'urn:cts:cwkb:670.1374'
p3111
aS'urn:cts:cwkb:671.1375'
p3112
aS'urn:cts:cwkb:672.1389'
p3113
aS'urn:cts:cwkb:672.1383'
p3114
aS'urn:cts:cwkb:672.1378'
p3115
aS'urn:cts:cwkb:672.1388'
p3116
aS'urn:cts:cwkb:672.1376'
p3117
aS'urn:cts:cwkb:672.1380'
p3118
aS'urn:cts:cwkb:672.1384'
p3119
aS'urn:cts:cwkb:672.1382'
p3120
aS'urn:cts:cwkb:672.1391'
p3121
aS'urn:cts:cwkb:672.1379'
p3122
aS'urn:cts:cwkb:672.1387'
p3123
aS'urn:cts:cwkb:672.1377'
p3124
aS'urn:cts:cwkb:672.1385'
p3125
aS'urn:cts:cwkb:672.1381'
p3126
aS'urn:cts:cwkb:672.1390'
p3127
aS'urn:cts:cwkb:672.1386'
p3128
aS'urn:cts:cwkb:672.1392'
p3129
aS'urn:cts:cwkb:673.1393'
p3130
aS'urn:cts:cwkb:674.1394'
p3131
aS'urn:cts:cwkb:675.1395'
p3132
aS'urn:cts:cwkb:676.1396'
p3133
aS'urn:cts:latinLit:phi0690.phi003'
p3134
aS'urn:cts:latinLit:phi0690.phi002'
p3135
aS'urn:cts:latinLit:phi0690.phi001'
p3136
aS'urn:cts:cwkb:679.1414'
p3137
aS'urn:cts:cwkb:680.1416'
p3138
aS'urn:cts:cwkb:680.1415'
p3139
aS'urn:cts:cwkb:681.1417'
p3140
aS'urn:cts:latinLit:phi1056.phi001'
p3141
aS'urn:cts:cwkb:683.1420'
p3142
aS'urn:cts:cwkb:684.1421'
p3143
aS'urn:cts:cwkb:706.1443'
p3144
aS'urn:cts:cwkb:707.1444'
p3145
aS'urn:cts:cwkb:708.1445'
p3146
aS'urn:cts:cwkb:709.1446'
p3147
aS'urn:cts:cwkb:710.1447'
p3148
aS'urn:cts:cwkb:711.1448'
p3149
aS'urn:cts:cwkb:712.1449'
p3150
aS'urn:cts:cwkb:713.1450'
p3151
aS'urn:cts:cwkb:714.1451'
p3152
aS'urn:cts:cwkb:715.1452'
p3153
aS'urn:cts:greekLit:tlg0058.tlg001'
p3154
aS'urn:cts:greekLit:tlg0026.tlg001'
p3155
aS'urn:cts:greekLit:tlg0026.tlg003'
p3156
aS'urn:cts:cwkb:717.1455'
p3157
aS'urn:cts:greekLit:tlg0026.tlg002'
p3158
aS'urn:cts:cwkb:718.1458'
p3159
aS'urn:cts:greekLit:tlg0085.tlg002'
p3160
aS'urn:cts:greekLit:tlg0085.tlg001'
p3161
aS'urn:cts:greekLit:tlg0085.tlg003'
p3162
aS'urn:cts:cwkb:719.1461'
p3163
aS'urn:cts:greekLit:tlg0085.tlg005'
p3164
aS'urn:cts:greekLit:tlg0085.tlg004'
p3165
aS'urn:cts:greekLit:tlg0085.tlg007'
p3166
aS'urn:cts:greekLit:tlg0085.tlg006'
p3167
aS'urn:cts:cwkb:720.1467'
p3168
aS'urn:cts:cwkb:721.1470'
p3169
aS'urn:cts:cwkb:721.1468'
p3170
aS'urn:cts:cwkb:721.1469'
p3171
aS'urn:cts:cwkb:722.8128'
p3172
aS'urn:cts:cwkb:722.1471'
p3173
aS'urn:cts:cwkb:724.1475'
p3174
aS'urn:cts:cwkb:725.1476'
p3175
aS'urn:cts:cwkb:726.1486'
p3176
aS'urn:cts:cwkb:726.1478'
p3177
aS'urn:cts:cwkb:726.1487'
p3178
aS'urn:cts:cwkb:726.1480'
p3179
aS'urn:cts:cwkb:726.1482'
p3180
aS'urn:cts:cwkb:726.1485'
p3181
aS'urn:cts:cwkb:726.1488'
p3182
aS'urn:cts:cwkb:726.1477'
p3183
aS'urn:cts:cwkb:726.1479'
p3184
aS'urn:cts:cwkb:726.1489'
p3185
aS'urn:cts:cwkb:726.1484'
p3186
aS'urn:cts:cwkb:727.1491'
p3187
aS'urn:cts:cwkb:728.1492'
p3188
aS'urn:cts:cwkb:729.1496'
p3189
aS'urn:cts:cwkb:729.1495'
p3190
aS'urn:cts:cwkb:729.1494'
p3191
aS'urn:cts:cwkb:729.1498'
p3192
aS'urn:cts:cwkb:729.1497'
p3193
aS'urn:cts:cwkb:730.1507'
p3194
aS'urn:cts:cwkb:730.1515'
p3195
aS'urn:cts:cwkb:730.1502'
p3196
aS'urn:cts:cwkb:730.1510'
p3197
aS'urn:cts:cwkb:730.1504'
p3198
aS'urn:cts:cwkb:730.1506'
p3199
aS'urn:cts:cwkb:730.1501'
p3200
aS'urn:cts:cwkb:730.1503'
p3201
aS'urn:cts:cwkb:730.1514'
p3202
aS'urn:cts:cwkb:730.1513'
p3203
aS'urn:cts:cwkb:730.1509'
p3204
aS'urn:cts:cwkb:730.1500'
p3205
aS'urn:cts:cwkb:730.1499'
p3206
aS'urn:cts:cwkb:730.1512'
p3207
aS'urn:cts:cwkb:730.1508'
p3208
aS'urn:cts:cwkb:730.1511'
p3209
aS'urn:cts:cwkb:730.1505'
p3210
aS'urn:cts:cwkb:731.1516'
p3211
aS'urn:cts:cwkb:731.4448'
p3212
aS'urn:cts:cwkb:731.4447'
p3213
aS'urn:cts:cwkb:732.1517'
p3214
aS'urn:cts:cwkb:733.1518'
p3215
aS'urn:cts:greekLit:tlg0027.tlg004'
p3216
aS'urn:cts:greekLit:tlg0027.tlg002'
p3217
aS'urn:cts:greekLit:tlg0027.tlg003'
p3218
aS'urn:cts:greekLit:tlg0027.tlg001'
p3219
aS'urn:cts:cwkb:736.1524'
p3220
aS'urn:cts:cwkb:737.1526'
p3221
aS'urn:cts:cwkb:737.1525'
p3222
aS'urn:cts:cwkb:737.7957'
p3223
aS'urn:cts:greekLit:tlg0028.tlg005'
p3224
aS'urn:cts:cwkb:738.9621'
p3225
aS'urn:cts:greekLit:tlg0028.tlg006'
p3226
aS'urn:cts:greekLit:tlg0028.tlg004'
p3227
aS'urn:cts:greekLit:tlg0028.tlg001'
p3228
aS'urn:cts:greekLit:tlg0028.tlg003'
p3229
aS'urn:cts:greekLit:tlg0028.tlg002'
p3230
aS'urn:cts:cwkb:739.8052'
p3231
aS'urn:cts:cwkb:740.1535'
p3232
aS'urn:cts:cwkb:741.1536'
p3233
aS'urn:cts:cwkb:742.1537'
p3234
aS'urn:cts:cwkb:743.1538'
p3235
aS'urn:cts:cwkb:744.1539'
p3236
aS'urn:cts:cwkb:745.1540'
p3237
aS'urn:cts:cwkb:746.1541'
p3238
aS'urn:cts:cwkb:747.1543'
p3239
aS'urn:cts:cwkb:747.1542'
p3240
aS'urn:cts:cwkb:748.1544'
p3241
aS'urn:cts:cwkb:748.9190'
p3242
aS'urn:cts:cwkb:750.1554'
p3243
aS'urn:cts:cwkb:750.1555'
p3244
aS'urn:cts:cwkb:750.1553'
p3245
aS'urn:cts:cwkb:750.1556'
p3246
aS'urn:cts:greekLit:tlg0001.tlg001'
p3247
aS'urn:cts:cwkb:751.1558'
p3248
aS'urn:cts:greekLit:tlg0551.tlg011'
p3249
aS'urn:cts:greekLit:tlg0551.tlg013'
p3250
aS'urn:cts:greekLit:tlg0551.tlg003'
p3251
aS'urn:cts:cwkb:752.8026'
p3252
aS'urn:cts:greekLit:tlg0551.tlg004'
p3253
aS'urn:cts:greekLit:tlg0551.tlg005'
p3254
aS'urn:cts:greekLit:tlg0551.tlg002'
p3255
aS'urn:cts:greekLit:tlg0551.tlg006'
p3256
aS'urn:cts:greekLit:tlg0551.tlg001'
p3257
aS'urn:cts:greekLit:tlg0551.tlg007'
p3258
aS'urn:cts:greekLit:tlg0551.tlg010'
p3259
aS'urn:cts:greekLit:tlg0551.tlg017'
p3260
aS'urn:cts:greekLit:tlg0551.tlg014'
p3261
aS'urn:cts:cwkb:752.1560'
p3262
aS'urn:cts:greekLit:tlg0551.tlg009'
p3263
aS'urn:cts:greekLit:tlg0551.tlg012'
p3264
aS'urn:cts:greekLit:tlg0551.tlg008'
p3265
aS'urn:cts:cwkb:753.1575'
p3266
aS'urn:cts:greekLit:tlg0653.tlg001'
p3267
aS'urn:cts:cwkb:754.1577'
p3268
aS'urn:cts:cwkb:756.1579'
p3269
aS'urn:cts:cwkb:756.9619'
p3270
aS'urn:cts:cwkb:757.1584'
p3271
aS'urn:cts:cwkb:757.1586'
p3272
aS'urn:cts:cwkb:757.1581'
p3273
aS'urn:cts:cwkb:757.1588'
p3274
aS'urn:cts:cwkb:757.1583'
p3275
aS'urn:cts:cwkb:757.1580'
p3276
aS'urn:cts:cwkb:757.1590'
p3277
aS'urn:cts:cwkb:757.1585'
p3278
aS'urn:cts:cwkb:757.1587'
p3279
aS'urn:cts:cwkb:757.1589'
p3280
aS'urn:cts:cwkb:757.1582'
p3281
aS'urn:cts:cwkb:758.1591'
p3282
aS'urn:cts:greekLit:tlg0719.tlg002'
p3283
aS'urn:cts:greekLit:tlg0719.tlg003'
p3284
aS'urn:cts:greekLit:tlg0719.tlg004'
p3285
aS'urn:cts:greekLit:tlg0719.tlg001'
p3286
aS'urn:cts:cwkb:760.1596'
p3287
aS'urn:cts:cwkb:761.1597'
p3288
aS'urn:cts:cwkb:762.1598'
p3289
aS'urn:cts:cwkb:763.1599'
p3290
aS'urn:cts:cwkb:763.1600'
p3291
aS'urn:cts:cwkb:764.1602'
p3292
aS'urn:cts:cwkb:764.1601'
p3293
aS'urn:cts:greekLit:tlg0019.tlg008'
p3294
aS'urn:cts:cwkb:765.1614'
p3295
aS'urn:cts:cwkb:765.9623'
p3296
aS'urn:cts:greekLit:tlg0019.tlg004'
p3297
aS'urn:cts:greekLit:tlg0019.tlg001'
p3298
aS'urn:cts:greekLit:tlg0019.tlg002'
p3299
aS'urn:cts:greekLit:tlg0019.tlg003'
p3300
aS'urn:cts:greekLit:tlg0019.tlg011'
p3301
aS'urn:cts:greekLit:tlg0019.tlg006'
p3302
aS'urn:cts:greekLit:tlg0019.tlg010'
p3303
aS'urn:cts:greekLit:tlg0019.tlg007'
p3304
aS'urn:cts:greekLit:tlg0019.tlg005'
p3305
aS'urn:cts:greekLit:tlg0019.tlg009'
p3306
aS'urn:cts:cwkb:766.1632'
p3307
aS'urn:cts:greekLit:tlg0086.tlg009'
p3308
aS'urn:cts:cwkb:766.1637'
p3309
aS'urn:cts:cwkb:766.1626'
p3310
aS'urn:cts:cwkb:766.1655'
p3311
aS'urn:cts:greekLit:tlg0086.tlg003'
p3312
aS'urn:cts:cwkb:766.1659'
p3313
aS'urn:cts:cwkb:766.1636'
p3314
aS'urn:cts:cwkb:766.1652'
p3315
aS'urn:cts:cwkb:766.1643'
p3316
aS'urn:cts:cwkb:766.1665'
p3317
aS'urn:cts:cwkb:766.1651'
p3318
aS'urn:cts:greekLit:tlg0086.tlg025'
p3319
aS'urn:cts:cwkb:766.1631'
p3320
aS'urn:cts:greekLit:tlg0086.tlg038'
p3321
aS'urn:cts:cwkb:766.1650'
p3322
aS'urn:cts:cwkb:766.1630'
p3323
aS'urn:cts:cwkb:766.1657'
p3324
aS'urn:cts:greekLit:tlg0086.tlg010'
p3325
aS'urn:cts:cwkb:766.1666'
p3326
aS'urn:cts:greekLit:tlg0086.tlg029'
p3327
aS'urn:cts:cwkb:766.1658'
p3328
aS'urn:cts:cwkb:766.1633'
p3329
aS'urn:cts:cwkb:766.1634'
p3330
aS'urn:cts:cwkb:766.1621'
p3331
aS'urn:cts:cwkb:766.1624'
p3332
aS'urn:cts:cwkb:766.1635'
p3333
aS'urn:cts:cwkb:766.1642'
p3334
aS'urn:cts:cwkb:766.9614'
p3335
aS'urn:cts:cwkb:766.1625'
p3336
aS'urn:cts:cwkb:766.1645'
p3337
aS'urn:cts:cwkb:766.1654'
p3338
aS'urn:cts:cwkb:766.1646'
p3339
aS'urn:cts:greekLit:tlg0086.tlg045'
p3340
aS'urn:cts:cwkb:766.1629'
p3341
aS'urn:cts:cwkb:766.1622'
p3342
aS'urn:cts:cwkb:766.1638'
p3343
aS'urn:cts:cwkb:766.1647'
p3344
aS'urn:cts:cwkb:766.1662'
p3345
aS'urn:cts:cwkb:766.1623'
p3346
aS'urn:cts:greekLit:tlg0086.tlg035'
p3347
aS'urn:cts:cwkb:766.1640'
p3348
aS'urn:cts:cwkb:766.1628'
p3349
aS'urn:cts:cwkb:766.1639'
p3350
aS'urn:cts:cwkb:766.1641'
p3351
aS'urn:cts:cwkb:766.1663'
p3352
aS'urn:cts:cwkb:766.1620'
p3353
aS'urn:cts:greekLit:tlg0086.tlg034'
p3354
aS'urn:cts:cwkb:766.1627'
p3355
aS'urn:cts:cwkb:767.8222'
p3356
aS'urn:cts:cwkb:767.1667'
p3357
aS'urn:cts:cwkb:767.7983'
p3358
aS'urn:cts:cwkb:768.1668'
p3359
aS'urn:cts:cwkb:768.1669'
p3360
aS'urn:cts:cwkb:769.1670'
p3361
aS'urn:cts:cwkb:770.1671'
p3362
aS'urn:cts:greekLit:tlg0556.tlg001'
p3363
aS'urn:cts:cwkb:772.1673'
p3364
aS'urn:cts:cwkb:773.1676'
p3365
aS'urn:cts:cwkb:773.1674'
p3366
aS'urn:cts:cwkb:774.1678'
p3367
aS'urn:cts:cwkb:775.1754'
p3368
aS'urn:cts:cwkb:775.1745'
p3369
aS'urn:cts:cwkb:775.1719'
p3370
aS'urn:cts:cwkb:775.1724'
p3371
aS'urn:cts:cwkb:775.1734'
p3372
aS'urn:cts:cwkb:775.1752'
p3373
aS'urn:cts:cwkb:775.1712'
p3374
aS'urn:cts:cwkb:775.1687'
p3375
aS'urn:cts:cwkb:775.1685'
p3376
aS'urn:cts:cwkb:775.1689'
p3377
aS'urn:cts:cwkb:775.1763'
p3378
aS'urn:cts:cwkb:775.1710'
p3379
aS'urn:cts:cwkb:775.1771'
p3380
aS'urn:cts:cwkb:775.1768'
p3381
aS'urn:cts:cwkb:775.1681'
p3382
aS'urn:cts:cwkb:775.1725'
p3383
aS'urn:cts:cwkb:775.1729'
p3384
aS'urn:cts:cwkb:775.1722'
p3385
aS'urn:cts:cwkb:775.1699'
p3386
aS'urn:cts:cwkb:775.1721'
p3387
aS'urn:cts:cwkb:775.1767'
p3388
aS'urn:cts:cwkb:775.1696'
p3389
aS'urn:cts:cwkb:775.1700'
p3390
aS'urn:cts:cwkb:775.1769'
p3391
aS'urn:cts:cwkb:775.1744'
p3392
aS'urn:cts:cwkb:775.1732'
p3393
aS'urn:cts:cwkb:775.1773'
p3394
aS'urn:cts:cwkb:775.1736'
p3395
aS'urn:cts:cwkb:775.1759'
p3396
aS'urn:cts:cwkb:775.1704'
p3397
aS'urn:cts:cwkb:775.1770'
p3398
aS'urn:cts:cwkb:775.1775'
p3399
aS'urn:cts:cwkb:775.1694'
p3400
aS'urn:cts:cwkb:775.1758'
p3401
aS'urn:cts:cwkb:775.1731'
p3402
aS'urn:cts:cwkb:775.1757'
p3403
aS'urn:cts:cwkb:775.1742'
p3404
aS'urn:cts:cwkb:775.1692'
p3405
aS'urn:cts:cwkb:775.1747'
p3406
aS'urn:cts:cwkb:775.1679'
p3407
aS'urn:cts:cwkb:775.1746'
p3408
aS'urn:cts:cwkb:775.1740'
p3409
aS'urn:cts:cwkb:775.1702'
p3410
aS'urn:cts:cwkb:775.1697'
p3411
aS'urn:cts:cwkb:775.1766'
p3412
aS'urn:cts:cwkb:775.1743'
p3413
aS'urn:cts:cwkb:775.1703'
p3414
aS'urn:cts:cwkb:775.1688'
p3415
aS'urn:cts:cwkb:775.1751'
p3416
aS'urn:cts:cwkb:775.1684'
p3417
aS'urn:cts:cwkb:775.1718'
p3418
aS'urn:cts:cwkb:775.1709'
p3419
aS'urn:cts:cwkb:775.1755'
p3420
aS'urn:cts:cwkb:775.1762'
p3421
aS'urn:cts:cwkb:775.1737'
p3422
aS'urn:cts:cwkb:775.1753'
p3423
aS'urn:cts:cwkb:775.1695'
p3424
aS'urn:cts:cwkb:775.1711'
p3425
aS'urn:cts:cwkb:775.1680'
p3426
aS'urn:cts:cwkb:775.1750'
p3427
aS'urn:cts:cwkb:775.1693'
p3428
aS'urn:cts:cwkb:775.1738'
p3429
aS'urn:cts:cwkb:775.1756'
p3430
aS'urn:cts:cwkb:775.1733'
p3431
aS'urn:cts:cwkb:775.1691'
p3432
aS'urn:cts:cwkb:775.1706'
p3433
aS'urn:cts:cwkb:775.1764'
p3434
aS'urn:cts:cwkb:775.1727'
p3435
aS'urn:cts:cwkb:775.1739'
p3436
aS'urn:cts:cwkb:775.1707'
p3437
aS'urn:cts:cwkb:775.1726'
p3438
aS'urn:cts:cwkb:775.1765'
p3439
aS'urn:cts:cwkb:775.1708'
p3440
aS'urn:cts:cwkb:775.1686'
p3441
aS'urn:cts:cwkb:775.1772'
p3442
aS'urn:cts:cwkb:775.1735'
p3443
aS'urn:cts:cwkb:775.1715'
p3444
aS'urn:cts:cwkb:775.1774'
p3445
aS'urn:cts:cwkb:775.1748'
p3446
aS'urn:cts:cwkb:775.1690'
p3447
aS'urn:cts:cwkb:775.1730'
p3448
aS'urn:cts:cwkb:775.1714'
p3449
aS'urn:cts:cwkb:775.1705'
p3450
aS'urn:cts:cwkb:775.1713'
p3451
aS'urn:cts:cwkb:775.1698'
p3452
aS'urn:cts:cwkb:775.1683'
p3453
aS'urn:cts:cwkb:775.1682'
p3454
aS'urn:cts:cwkb:775.1723'
p3455
aS'urn:cts:cwkb:775.1760'
p3456
aS'urn:cts:cwkb:775.1741'
p3457
aS'urn:cts:cwkb:775.1717'
p3458
aS'urn:cts:cwkb:775.1720'
p3459
aS'urn:cts:cwkb:775.1701'
p3460
aS'urn:cts:cwkb:775.1761'
p3461
aS'urn:cts:cwkb:775.1716'
p3462
aS'urn:cts:cwkb:775.1728'
p3463
aS'urn:cts:cwkb:777.1778'
p3464
aS'urn:cts:cwkb:777.1779'
p3465
aS'urn:cts:cwkb:778.1780'
p3466
aS'urn:cts:cwkb:779.1782'
p3467
aS'urn:cts:cwkb:779.1781'
p3468
aS'urn:cts:cwkb:780.1783'
p3469
aS'urn:cts:cwkb:781.1786'
p3470
aS'urn:cts:cwkb:781.1795'
p3471
aS'urn:cts:greekLit:tlg0199.tlg002'
p3472
aS'urn:cts:cwkb:781.1790'
p3473
aS'urn:cts:cwkb:781.1792'
p3474
aS'urn:cts:cwkb:781.1794'
p3475
aS'urn:cts:cwkb:781.1791'
p3476
aS'urn:cts:greekLit:tlg0199.tlg001'
p3477
aS'urn:cts:cwkb:781.1787'
p3478
aS'urn:cts:cwkb:781.1785'
p3479
aS'urn:cts:cwkb:781.1789'
p3480
aS'urn:cts:cwkb:781.1793'
p3481
aS'urn:cts:greekLit:tlg1216.tlg001'
p3482
aS'urn:cts:cwkb:783.1797'
p3483
aS'urn:cts:cwkb:784.1862'
p3484
aS'urn:cts:cwkb:784.1802'
p3485
aS'urn:cts:cwkb:784.1847'
p3486
aS'urn:cts:cwkb:784.1849'
p3487
aS'urn:cts:cwkb:784.1814'
p3488
aS'urn:cts:cwkb:784.1824'
p3489
aS'urn:cts:cwkb:784.1852'
p3490
aS'urn:cts:cwkb:784.1817'
p3491
aS'urn:cts:cwkb:784.1854'
p3492
aS'urn:cts:cwkb:784.1864'
p3493
aS'urn:cts:cwkb:784.1820'
p3494
aS'urn:cts:cwkb:784.1809'
p3495
aS'urn:cts:cwkb:784.1865'
p3496
aS'urn:cts:cwkb:784.1844'
p3497
aS'urn:cts:cwkb:784.1867'
p3498
aS'urn:cts:cwkb:784.1848'
p3499
aS'urn:cts:cwkb:784.1843'
p3500
aS'urn:cts:cwkb:784.1830'
p3501
aS'urn:cts:cwkb:784.1835'
p3502
aS'urn:cts:cwkb:784.1821'
p3503
aS'urn:cts:cwkb:784.1866'
p3504
aS'urn:cts:cwkb:784.1801'
p3505
aS'urn:cts:cwkb:784.1819'
p3506
aS'urn:cts:cwkb:784.1803'
p3507
aS'urn:cts:cwkb:784.1834'
p3508
aS'urn:cts:cwkb:784.1806'
p3509
aS'urn:cts:cwkb:784.1833'
p3510
aS'urn:cts:cwkb:784.1818'
p3511
aS'urn:cts:cwkb:784.1856'
p3512
aS'urn:cts:cwkb:784.1816'
p3513
aS'urn:cts:cwkb:784.1850'
p3514
aS'urn:cts:cwkb:784.8268'
p3515
aS'urn:cts:cwkb:784.1838'
p3516
aS'urn:cts:cwkb:784.1823'
p3517
aS'urn:cts:cwkb:784.1861'
p3518
aS'urn:cts:cwkb:784.1855'
p3519
aS'urn:cts:cwkb:784.1813'
p3520
aS'urn:cts:greekLit:tlg2040.tlg004'
p3521
aS'urn:cts:cwkb:784.1832'
p3522
aS'urn:cts:cwkb:784.1822'
p3523
aS'urn:cts:cwkb:784.1799'
p3524
aS'urn:cts:greekLit:tlg2040.tlg002'
p3525
aS'urn:cts:cwkb:784.1808'
p3526
aS'urn:cts:cwkb:784.1804'
p3527
aS'urn:cts:cwkb:784.1829'
p3528
aS'urn:cts:cwkb:784.1839'
p3529
aS'urn:cts:cwkb:784.1860'
p3530
aS'urn:cts:cwkb:784.1853'
p3531
aS'urn:cts:cwkb:784.1828'
p3532
aS'urn:cts:cwkb:784.1858'
p3533
aS'urn:cts:cwkb:784.1831'
p3534
aS'urn:cts:cwkb:784.1798'
p3535
aS'urn:cts:cwkb:784.1836'
p3536
aS'urn:cts:cwkb:784.1842'
p3537
aS'urn:cts:cwkb:784.1845'
p3538
aS'urn:cts:cwkb:784.1840'
p3539
aS'urn:cts:cwkb:784.1837'
p3540
aS'urn:cts:cwkb:784.1812'
p3541
aS'urn:cts:cwkb:784.1810'
p3542
aS'urn:cts:cwkb:784.1841'
p3543
aS'urn:cts:cwkb:784.1815'
p3544
aS'urn:cts:cwkb:784.1859'
p3545
aS'urn:cts:cwkb:784.1827'
p3546
aS'urn:cts:cwkb:784.1857'
p3547
aS'urn:cts:cwkb:784.1851'
p3548
aS'urn:cts:cwkb:784.1805'
p3549
aS'urn:cts:cwkb:784.1863'
p3550
aS'urn:cts:cwkb:784.1846'
p3551
aS'urn:cts:cwkb:784.1826'
p3552
aS'urn:cts:cwkb:784.1825'
p3553
aS'urn:cts:cwkb:784.1800'
p3554
aS'urn:cts:cwkb:785.1869'
p3555
aS'urn:cts:cwkb:785.1870'
p3556
aS'urn:cts:cwkb:785.1875'
p3557
aS'urn:cts:cwkb:785.1872'
p3558
aS'urn:cts:cwkb:785.1874'
p3559
aS'urn:cts:cwkb:785.1868'
p3560
aS'urn:cts:cwkb:785.1876'
p3561
aS'urn:cts:cwkb:785.1871'
p3562
aS'urn:cts:cwkb:785.1873'
p3563
aS'urn:cts:cwkb:787.1879'
p3564
aS'urn:cts:cwkb:788.1881'
p3565
aS'urn:cts:cwkb:788.8168'
p3566
aS'urn:cts:cwkb:788.1880'
p3567
aS'urn:cts:cwkb:789.1892'
p3568
aS'urn:cts:greekLit:tlg0533.tlg003'
p3569
aS'urn:cts:cwkb:789.1883'
p3570
aS'urn:cts:cwkb:789.1884'
p3571
aS'urn:cts:greekLit:tlg0533.tlg016'
p3572
aS'urn:cts:cwkb:789.4465'
p3573
aS'urn:cts:cwkb:789.1885'
p3574
aS'urn:cts:greekLit:tlg0533.tlg015'
p3575
aS'urn:cts:greekLit:tlg0533.tlg018'
p3576
aS'urn:cts:cwkb:789.9117'
p3577
aS'urn:cts:cwkb:789.9119'
p3578
aS'urn:cts:greekLit:tlg0533.tlg019'
p3579
aS'urn:cts:greekLit:tlg0533.tlg017'
p3580
aS'urn:cts:cwkb:789.1882'
p3581
aS'urn:cts:greekLit:tlg0533.tlg020'
p3582
aS'urn:cts:cwkb:790.1893'
p3583
aS'urn:cts:greekLit:tlg4091.tlg001'
p3584
aS'urn:cts:cwkb:792.1895'
p3585
aS'urn:cts:cwkb:793.1896'
p3586
aS'urn:cts:cwkb:794.1897'
p3587
aS'urn:cts:cwkb:795.1898'
p3588
aS'urn:cts:cwkb:796.1899'
p3589
aS'urn:cts:greekLit:tlg0385.tlg001'
p3590
aS'urn:cts:cwkb:797.8252'
p3591
aS'urn:cts:cwkb:798.1901'
p3592
aS'urn:cts:greekLit:tlg0554.tlg001'
p3593
aS'urn:cts:cwkb:800.1905'
p3594
aS'urn:cts:cwkb:801.1906'
p3595
aS'urn:cts:cwkb:802.1907'
p3596
aS'urn:cts:cwkb:802.8182'
p3597
aS'urn:cts:cwkb:803.1908'
p3598
aS'urn:cts:cwkb:803.1910'
p3599
aS'urn:cts:cwkb:803.1911'
p3600
aS'urn:cts:cwkb:803.1909'
p3601
aS'urn:cts:greekLit:tlg0545.tlg002'
p3602
aS'urn:cts:greekLit:tlg0545.tlg001'
p3603
aS'urn:cts:greekLit:tlg0545.tlg003'
p3604
aS'urn:cts:cwkb:804.7989'
p3605
aS'urn:cts:cwkb:805.1921'
p3606
aS'urn:cts:cwkb:805.4456'
p3607
aS'urn:cts:cwkb:805.1917'
p3608
aS'urn:cts:greekLit:tlg0363.tlg007'
p3609
aS'urn:cts:cwkb:805.1919'
p3610
aS'urn:cts:cwkb:805.1922'
p3611
aS'urn:cts:cwkb:805.1918'
p3612
aS'urn:cts:cwkb:805.1923'
p3613
aS'urn:cts:cwkb:805.1920'
p3614
aS'urn:cts:cwkb:805.1916'
p3615
aS'urn:cts:cwkb:806.1924'
p3616
aS'urn:cts:greekLit:tlg0555.tlg006'
p3617
aS'urn:cts:cwkb:806.1927'
p3618
aS'urn:cts:greekLit:tlg0555.tlg008'
p3619
aS'urn:cts:cwkb:806.1925'
p3620
aS'urn:cts:cwkb:806.9541'
p3621
aS'urn:cts:greekLit:tlg0555.tlg001'
p3622
aS'urn:cts:cwkb:806.1926'
p3623
aS'urn:cts:cwkb:806.1930'
p3624
aS'urn:cts:cwkb:807.1932'
p3625
aS'urn:cts:cwkb:807.1937'
p3626
aS'urn:cts:cwkb:807.1931'
p3627
aS'urn:cts:cwkb:807.1933'
p3628
aS'urn:cts:cwkb:807.1934'
p3629
aS'urn:cts:cwkb:807.1936'
p3630
aS'urn:cts:cwkb:807.4478'
p3631
aS'urn:cts:cwkb:807.1935'
p3632
aS'urn:cts:cwkb:808.1938'
p3633
aS'urn:cts:cwkb:809.1939'
p3634
aS'urn:cts:cwkb:810.1940'
p3635
aS'urn:cts:cwkb:811.1941'
p3636
aS'urn:cts:cwkb:812.1942'
p3637
aS'urn:cts:greekLit:tlg4081.tlg001'
p3638
aS'urn:cts:cwkb:814.1944'
p3639
aS'urn:cts:cwkb:815.1945'
p3640
aS'urn:cts:cwkb:816.1946'
p3641
aS'urn:cts:cwkb:817.9175'
p3642
aS'urn:cts:cwkb:817.1947'
p3643
aS'urn:cts:cwkb:817.7969'
p3644
aS'urn:cts:cwkb:817.9174'
p3645
aS'urn:cts:cwkb:818.1948'
p3646
aS'urn:cts:cwkb:819.1949'
p3647
aS'urn:cts:cwkb:820.1964'
p3648
aS'urn:cts:cwkb:820.8010'
p3649
aS'urn:cts:cwkb:820.1977'
p3650
aS'urn:cts:cwkb:820.1950'
p3651
aS'urn:cts:cwkb:820.1968'
p3652
aS'urn:cts:cwkb:820.1967'
p3653
aS'urn:cts:cwkb:820.1979'
p3654
aS'urn:cts:cwkb:820.1982'
p3655
aS'urn:cts:cwkb:820.1960'
p3656
aS'urn:cts:cwkb:820.1975'
p3657
aS'urn:cts:cwkb:820.1970'
p3658
aS'urn:cts:cwkb:820.1961'
p3659
aS'urn:cts:cwkb:820.1978'
p3660
aS'urn:cts:cwkb:820.1971'
p3661
aS'urn:cts:cwkb:820.1953'
p3662
aS'urn:cts:cwkb:820.1958'
p3663
aS'urn:cts:cwkb:820.1954'
p3664
aS'urn:cts:cwkb:820.9562'
p3665
aS'urn:cts:cwkb:820.1959'
p3666
aS'urn:cts:cwkb:820.1957'
p3667
aS'urn:cts:cwkb:820.1976'
p3668
aS'urn:cts:cwkb:820.1952'
p3669
aS'urn:cts:cwkb:820.1955'
p3670
aS'urn:cts:cwkb:820.1974'
p3671
aS'urn:cts:cwkb:820.1980'
p3672
aS'urn:cts:cwkb:820.1956'
p3673
aS'urn:cts:cwkb:820.1973'
p3674
aS'urn:cts:cwkb:820.1966'
p3675
aS'urn:cts:cwkb:820.1963'
p3676
aS'urn:cts:cwkb:820.1972'
p3677
aS'urn:cts:cwkb:820.4579'
p3678
aS'urn:cts:cwkb:820.1962'
p3679
aS'urn:cts:cwkb:820.1981'
p3680
aS'urn:cts:cwkb:820.1965'
p3681
aS'urn:cts:cwkb:820.1951'
p3682
aS'urn:cts:cwkb:820.1969'
p3683
aS'urn:cts:cwkb:820.9181'
p3684
aS'urn:cts:cwkb:821.1988'
p3685
aS'urn:cts:cwkb:821.1984'
p3686
aS'urn:cts:cwkb:821.1990'
p3687
aS'urn:cts:cwkb:821.1983'
p3688
aS'urn:cts:cwkb:821.1986'
p3689
aS'urn:cts:cwkb:821.1989'
p3690
aS'urn:cts:cwkb:821.1985'
p3691
aS'urn:cts:cwkb:821.1987'
p3692
aS'urn:cts:cwkb:821.4523'
p3693
aS'urn:cts:cwkb:822.1991'
p3694
aS'urn:cts:cwkb:823.1992'
p3695
aS'urn:cts:cwkb:825.1994'
p3696
aS'urn:cts:cwkb:825.8248'
p3697
aS'urn:cts:cwkb:826.1995'
p3698
aS'urn:cts:greekLit:tlg0014.tlg020'
p3699
aS'urn:cts:greekLit:tlg0014.tlg034'
p3700
aS'urn:cts:greekLit:tlg0014.tlg005'
p3701
aS'urn:cts:greekLit:tlg0014.tlg023'
p3702
aS'urn:cts:greekLit:tlg0014.tlg003'
p3703
aS'urn:cts:greekLit:tlg0014.tlg060'
p3704
aS'urn:cts:greekLit:tlg0014.tlg056'
p3705
aS'urn:cts:greekLit:tlg0014.tlg021'
p3706
aS'urn:cts:greekLit:tlg0014.tlg002'
p3707
aS'urn:cts:greekLit:tlg0014.tlg013'
p3708
aS'urn:cts:greekLit:tlg0014.tlg024'
p3709
aS'urn:cts:greekLit:tlg0014.tlg033'
p3710
aS'urn:cts:greekLit:tlg0014.tlg039'
p3711
aS'urn:cts:greekLit:tlg0014.tlg035'
p3712
aS'urn:cts:greekLit:tlg0014.tlg011'
p3713
aS'urn:cts:greekLit:tlg0014.tlg049'
p3714
aS'urn:cts:greekLit:tlg0014.tlg062'
p3715
aS'urn:cts:greekLit:tlg0014.tlg050'
p3716
aS'urn:cts:greekLit:tlg0014.tlg017'
p3717
aS'urn:cts:greekLit:tlg0014.tlg057'
p3718
aS'urn:cts:greekLit:tlg0014.tlg030'
p3719
aS'urn:cts:greekLit:tlg0014.tlg061'
p3720
aS'urn:cts:greekLit:tlg0014.tlg063'
p3721
aS'urn:cts:greekLit:tlg0014.tlg029'
p3722
aS'urn:cts:greekLit:tlg0014.tlg022'
p3723
aS'urn:cts:greekLit:tlg0014.tlg038'
p3724
aS'urn:cts:greekLit:tlg0014.tlg052'
p3725
aS'urn:cts:greekLit:tlg0014.tlg009'
p3726
aS'urn:cts:greekLit:tlg0014.tlg046'
p3727
aS'urn:cts:greekLit:tlg0014.tlg007'
p3728
aS'urn:cts:greekLit:tlg0014.tlg051'
p3729
aS'urn:cts:greekLit:tlg0014.tlg055'
p3730
aS'urn:cts:greekLit:tlg0014.tlg026'
p3731
aS'urn:cts:greekLit:tlg0014.tlg059'
p3732
aS'urn:cts:greekLit:tlg0014.tlg031'
p3733
aS'urn:cts:greekLit:tlg0014.tlg047'
p3734
aS'urn:cts:greekLit:tlg0014.tlg037'
p3735
aS'urn:cts:greekLit:tlg0014.tlg008'
p3736
aS'urn:cts:greekLit:tlg0014.tlg053'
p3737
aS'urn:cts:greekLit:tlg0014.tlg014'
p3738
aS'urn:cts:greekLit:tlg0014.tlg058'
p3739
aS'urn:cts:greekLit:tlg0014.tlg004'
p3740
aS'urn:cts:greekLit:tlg0014.tlg032'
p3741
aS'urn:cts:greekLit:tlg0014.tlg045'
p3742
aS'urn:cts:greekLit:tlg0014.tlg040'
p3743
aS'urn:cts:greekLit:tlg0014.tlg010'
p3744
aS'urn:cts:greekLit:tlg0014.tlg048'
p3745
aS'urn:cts:greekLit:tlg0014.tlg044'
p3746
aS'urn:cts:greekLit:tlg0014.tlg043'
p3747
aS'urn:cts:greekLit:tlg0014.tlg006'
p3748
aS'urn:cts:greekLit:tlg0014.tlg019'
p3749
aS'urn:cts:greekLit:tlg0014.tlg018'
p3750
aS'urn:cts:greekLit:tlg0014.tlg015'
p3751
aS'urn:cts:greekLit:tlg0014.tlg036'
p3752
aS'urn:cts:greekLit:tlg0014.tlg028'
p3753
aS'urn:cts:greekLit:tlg0014.tlg042'
p3754
aS'urn:cts:greekLit:tlg0014.tlg016'
p3755
aS'urn:cts:greekLit:tlg0014.tlg054'
p3756
aS'urn:cts:greekLit:tlg0014.tlg001'
p3757
aS'urn:cts:greekLit:tlg0014.tlg027'
p3758
aS'urn:cts:greekLit:tlg0014.tlg025'
p3759
aS'urn:cts:greekLit:tlg0014.tlg041'
p3760
aS'urn:cts:cwkb:828.2055'
p3761
aS'urn:cts:cwkb:829.2058'
p3762
aS'urn:cts:cwkb:829.2059'
p3763
aS'urn:cts:cwkb:829.2056'
p3764
aS'urn:cts:cwkb:829.2057'
p3765
aS'urn:cts:cwkb:830.2061'
p3766
aS'urn:cts:cwkb:830.2060'
p3767
aS'urn:cts:cwkb:831.2066'
p3768
aS'urn:cts:cwkb:831.2064'
p3769
aS'urn:cts:cwkb:831.2063'
p3770
aS'urn:cts:cwkb:831.8067'
p3771
aS'urn:cts:cwkb:831.8101'
p3772
aS'urn:cts:cwkb:831.2062'
p3773
aS'urn:cts:cwkb:831.9558'
p3774
aS'urn:cts:cwkb:831.2068'
p3775
aS'urn:cts:cwkb:831.2067'
p3776
aS'urn:cts:cwkb:831.2065'
p3777
aS'urn:cts:cwkb:831.9537'
p3778
aS'urn:cts:cwkb:831.2069'
p3779
aS'urn:cts:cwkb:832.2070'
p3780
aS'urn:cts:greekLit:tlg0029.tlg005'
p3781
aS'urn:cts:greekLit:tlg0029.tlg004'
p3782
aS'urn:cts:greekLit:tlg0029.tlg006'
p3783
aS'urn:cts:cwkb:833.4582'
p3784
aS'urn:cts:greekLit:tlg0612.tlg001'
p3785
aS'urn:cts:cwkb:834.2074'
p3786
aS'urn:cts:cwkb:835.2076'
p3787
aS'urn:cts:cwkb:836.2078'
p3788
aS'urn:cts:greekLit:tlg0004.tlg001'
p3789
aS'urn:cts:cwkb:837.2083'
p3790
aS'urn:cts:cwkb:837.2082'
p3791
aS'urn:cts:cwkb:837.2084'
p3792
aS'urn:cts:cwkb:838.2088'
p3793
aS'urn:cts:greekLit:tlg0081.tlg011'
p3794
aS'urn:cts:greekLit:tlg0081.tlg003'
p3795
aS'urn:cts:cwkb:838.2092'
p3796
aS'urn:cts:greekLit:tlg0081.tlg006'
p3797
aS'urn:cts:greekLit:tlg0081.tlg010'
p3798
aS'urn:cts:greekLit:tlg0081.tlg005'
p3799
aS'urn:cts:greekLit:tlg0081.tlg012'
p3800
aS'urn:cts:cwkb:838.8130'
p3801
aS'urn:cts:greekLit:tlg0081.tlg015'
p3802
aS'urn:cts:greekLit:tlg0081.tlg007'
p3803
aS'urn:cts:greekLit:tlg0081.tlg008'
p3804
aS'urn:cts:greekLit:tlg0081.tlg002'
p3805
aS'urn:cts:greekLit:tlg0081.tlg004'
p3806
aS'urn:cts:greekLit:tlg0081.tlg001'
p3807
aS'urn:cts:greekLit:tlg0081.tlg009'
p3808
aS'urn:cts:cwkb:839.8126'
p3809
aS'urn:cts:cwkb:839.2100'
p3810
aS'urn:cts:cwkb:840.2101'
p3811
aS'urn:cts:cwkb:840.2102'
p3812
aS'urn:cts:cwkb:841.4473'
p3813
aS'urn:cts:cwkb:841.2103'
p3814
aS'urn:cts:cwkb:842.2104'
p3815
aS'urn:cts:cwkb:843.2105'
p3816
aS'urn:cts:cwkb:844.2106'
p3817
aS'urn:cts:cwkb:845.2107'
p3818
aS'urn:cts:cwkb:846.2108'
p3819
aS'urn:cts:cwkb:847.2109'
p3820
aS'urn:cts:cwkb:847.8231'
p3821
aS'urn:cts:cwkb:848.2110'
p3822
aS'urn:cts:cwkb:849.2154'
p3823
aS'urn:cts:cwkb:849.2227'
p3824
aS'urn:cts:cwkb:849.2223'
p3825
aS'urn:cts:cwkb:849.2122'
p3826
aS'urn:cts:cwkb:849.2217'
p3827
aS'urn:cts:cwkb:849.2175'
p3828
aS'urn:cts:cwkb:849.2228'
p3829
aS'urn:cts:cwkb:849.2230'
p3830
aS'urn:cts:cwkb:849.2131'
p3831
aS'urn:cts:cwkb:849.2198'
p3832
aS'urn:cts:cwkb:849.2112'
p3833
aS'urn:cts:cwkb:849.2212'
p3834
aS'urn:cts:cwkb:849.2222'
p3835
aS'urn:cts:cwkb:849.2141'
p3836
aS'urn:cts:cwkb:849.2168'
p3837
aS'urn:cts:cwkb:849.2126'
p3838
aS'urn:cts:cwkb:849.2147'
p3839
aS'urn:cts:cwkb:849.2149'
p3840
aS'urn:cts:cwkb:849.2114'
p3841
aS'urn:cts:cwkb:849.2229'
p3842
aS'urn:cts:cwkb:849.2117'
p3843
aS'urn:cts:cwkb:849.2205'
p3844
aS'urn:cts:cwkb:849.2191'
p3845
aS'urn:cts:cwkb:849.2206'
p3846
aS'urn:cts:cwkb:849.2153'
p3847
aS'urn:cts:cwkb:849.2142'
p3848
aS'urn:cts:cwkb:849.2134'
p3849
aS'urn:cts:cwkb:849.2138'
p3850
aS'urn:cts:cwkb:849.2155'
p3851
aS'urn:cts:cwkb:849.2159'
p3852
aS'urn:cts:cwkb:849.2132'
p3853
aS'urn:cts:cwkb:849.2184'
p3854
aS'urn:cts:cwkb:849.2195'
p3855
aS'urn:cts:cwkb:849.2202'
p3856
aS'urn:cts:cwkb:849.2232'
p3857
aS'urn:cts:cwkb:849.2216'
p3858
aS'urn:cts:cwkb:849.2172'
p3859
aS'urn:cts:cwkb:849.2182'
p3860
aS'urn:cts:cwkb:849.2171'
p3861
aS'urn:cts:cwkb:849.2150'
p3862
aS'urn:cts:cwkb:849.2140'
p3863
aS'urn:cts:cwkb:849.2208'
p3864
aS'urn:cts:cwkb:849.2123'
p3865
aS'urn:cts:cwkb:849.2163'
p3866
aS'urn:cts:cwkb:849.2146'
p3867
aS'urn:cts:cwkb:849.2176'
p3868
aS'urn:cts:cwkb:849.2124'
p3869
aS'urn:cts:cwkb:849.2203'
p3870
aS'urn:cts:cwkb:849.2204'
p3871
aS'urn:cts:cwkb:849.2207'
p3872
aS'urn:cts:cwkb:849.2165'
p3873
aS'urn:cts:cwkb:849.2144'
p3874
aS'urn:cts:cwkb:849.2166'
p3875
aS'urn:cts:cwkb:849.2156'
p3876
aS'urn:cts:cwkb:849.2135'
p3877
aS'urn:cts:cwkb:849.2127'
p3878
aS'urn:cts:cwkb:849.2125'
p3879
aS'urn:cts:cwkb:849.2120'
p3880
aS'urn:cts:cwkb:849.2220'
p3881
aS'urn:cts:cwkb:849.2133'
p3882
aS'urn:cts:cwkb:849.2161'
p3883
aS'urn:cts:cwkb:849.2221'
p3884
aS'urn:cts:cwkb:849.2194'
p3885
aS'urn:cts:cwkb:849.2111'
p3886
aS'urn:cts:cwkb:849.2121'
p3887
aS'urn:cts:cwkb:849.2210'
p3888
aS'urn:cts:cwkb:849.2129'
p3889
aS'urn:cts:cwkb:849.2139'
p3890
aS'urn:cts:cwkb:849.2160'
p3891
aS'urn:cts:cwkb:849.2214'
p3892
aS'urn:cts:cwkb:849.2158'
p3893
aS'urn:cts:cwkb:849.2189'
p3894
aS'urn:cts:cwkb:849.2136'
p3895
aS'urn:cts:cwkb:849.2145'
p3896
aS'urn:cts:cwkb:849.2151'
p3897
aS'urn:cts:cwkb:849.2115'
p3898
aS'urn:cts:cwkb:849.2188'
p3899
aS'urn:cts:cwkb:849.2199'
p3900
aS'urn:cts:cwkb:849.2213'
p3901
aS'urn:cts:cwkb:849.2164'
p3902
aS'urn:cts:cwkb:849.2187'
p3903
aS'urn:cts:cwkb:849.2218'
p3904
aS'urn:cts:cwkb:849.2192'
p3905
aS'urn:cts:cwkb:849.2197'
p3906
aS'urn:cts:cwkb:849.2196'
p3907
aS'urn:cts:cwkb:849.2162'
p3908
aS'urn:cts:cwkb:849.2148'
p3909
aS'urn:cts:cwkb:849.2130'
p3910
aS'urn:cts:cwkb:849.2190'
p3911
aS'urn:cts:cwkb:849.2119'
p3912
aS'urn:cts:cwkb:849.2178'
p3913
aS'urn:cts:cwkb:849.2118'
p3914
aS'urn:cts:cwkb:849.2193'
p3915
aS'urn:cts:cwkb:849.2174'
p3916
aS'urn:cts:cwkb:849.2113'
p3917
aS'urn:cts:cwkb:849.2181'
p3918
aS'urn:cts:cwkb:849.2209'
p3919
aS'urn:cts:cwkb:849.2170'
p3920
aS'urn:cts:cwkb:849.2185'
p3921
aS'urn:cts:cwkb:849.2231'
p3922
aS'urn:cts:cwkb:849.2128'
p3923
aS'urn:cts:cwkb:849.2157'
p3924
aS'urn:cts:cwkb:849.2215'
p3925
aS'urn:cts:cwkb:849.2183'
p3926
aS'urn:cts:cwkb:849.2137'
p3927
aS'urn:cts:cwkb:849.2180'
p3928
aS'urn:cts:cwkb:849.2224'
p3929
aS'urn:cts:cwkb:849.2169'
p3930
aS'urn:cts:cwkb:849.2225'
p3931
aS'urn:cts:cwkb:849.2167'
p3932
aS'urn:cts:cwkb:849.2186'
p3933
aS'urn:cts:cwkb:849.2211'
p3934
aS'urn:cts:cwkb:849.2177'
p3935
aS'urn:cts:cwkb:849.2143'
p3936
aS'urn:cts:cwkb:849.2179'
p3937
aS'urn:cts:cwkb:849.2219'
p3938
aS'urn:cts:cwkb:849.2201'
p3939
aS'urn:cts:cwkb:849.2152'
p3940
aS'urn:cts:cwkb:849.2200'
p3941
aS'urn:cts:cwkb:849.2116'
p3942
aS'urn:cts:cwkb:849.2226'
p3943
aS'urn:cts:cwkb:849.2173'
p3944
aS'urn:cts:greekLit:tlg0557.tlg002'
p3945
aS'urn:cts:greekLit:tlg0557.tlg001'
p3946
aS'urn:cts:cwkb:850.2233'
p3947
aS'urn:cts:cwkb:851.2239'
p3948
aS'urn:cts:cwkb:851.2240'
p3949
aS'urn:cts:cwkb:851.2236'
p3950
aS'urn:cts:cwkb:851.2238'
p3951
aS'urn:cts:cwkb:851.2241'
p3952
aS'urn:cts:cwkb:851.2237'
p3953
aS'urn:cts:cwkb:851.2235'
p3954
aS'urn:cts:cwkb:851.2242'
p3955
aS'urn:cts:cwkb:852.2243'
p3956
aS'urn:cts:cwkb:853.2245'
p3957
aS'urn:cts:cwkb:853.2266'
p3958
aS'urn:cts:cwkb:853.2253'
p3959
aS'urn:cts:cwkb:853.2250'
p3960
aS'urn:cts:cwkb:853.2258'
p3961
aS'urn:cts:cwkb:853.2265'
p3962
aS'urn:cts:cwkb:853.2259'
p3963
aS'urn:cts:cwkb:853.2262'
p3964
aS'urn:cts:cwkb:853.2263'
p3965
aS'urn:cts:cwkb:853.2246'
p3966
aS'urn:cts:cwkb:853.2244'
p3967
aS'urn:cts:cwkb:853.2251'
p3968
aS'urn:cts:cwkb:853.2254'
p3969
aS'urn:cts:cwkb:853.2256'
p3970
aS'urn:cts:cwkb:853.2248'
p3971
aS'urn:cts:cwkb:853.4041'
p3972
aS'urn:cts:cwkb:853.2249'
p3973
aS'urn:cts:cwkb:853.2264'
p3974
aS'urn:cts:cwkb:853.2261'
p3975
aS'urn:cts:cwkb:853.2255'
p3976
aS'urn:cts:cwkb:853.2257'
p3977
aS'urn:cts:cwkb:853.2260'
p3978
aS'urn:cts:cwkb:853.2252'
p3979
aS'urn:cts:cwkb:853.2247'
p3980
aS'urn:cts:cwkb:854.2267'
p3981
aS'urn:cts:cwkb:855.2268'
p3982
aS'urn:cts:cwkb:856.2269'
p3983
aS'urn:cts:cwkb:857.2270'
p3984
aS'urn:cts:cwkb:858.2271'
p3985
aS'urn:cts:cwkb:859.2272'
p3986
aS'urn:cts:cwkb:860.2273'
p3987
aS'urn:cts:cwkb:861.2276'
p3988
aS'urn:cts:cwkb:861.2274'
p3989
aS'urn:cts:cwkb:861.9093'
p3990
aS'urn:cts:cwkb:861.9092'
p3991
aS'urn:cts:cwkb:861.8107'
p3992
aS'urn:cts:greekLit:tlg1799.tlg001'
p3993
aS'urn:cts:cwkb:861.2275'
p3994
aS'urn:cts:cwkb:862.9538'
p3995
aS'urn:cts:cwkb:862.2277'
p3996
aS'urn:cts:cwkb:863.2278'
p3997
aS'urn:cts:cwkb:863.2279'
p3998
aS'urn:cts:cwkb:865.2281'
p3999
aS'urn:cts:cwkb:865.7975'
p4000
aS'urn:cts:cwkb:866.2282'
p4001
aS'urn:cts:cwkb:866.2283'
p4002
aS'urn:cts:cwkb:867.2284'
p4003
aS'urn:cts:cwkb:868.2285'
p4004
aS'urn:cts:greekLit:tlg0006.tlg017'
p4005
aS'urn:cts:greekLit:tlg0006.tlg002'
p4006
aS'urn:cts:greekLit:tlg0006.tlg005'
p4007
aS'urn:cts:greekLit:tlg0006.tlg013'
p4008
aS'urn:cts:greekLit:tlg0006.tlg006'
p4009
aS'urn:cts:greekLit:tlg0006.tlg018'
p4010
aS'urn:cts:greekLit:tlg0006.tlg011'
p4011
aS'urn:cts:cwkb:869.2291'
p4012
aS'urn:cts:greekLit:tlg0006.tlg019'
p4013
aS'urn:cts:greekLit:tlg0006.tlg004'
p4014
aS'urn:cts:greekLit:tlg0006.tlg016'
p4015
aS'urn:cts:cwkb:869.4583'
p4016
aS'urn:cts:greekLit:tlg0006.tlg015'
p4017
aS'urn:cts:greekLit:tlg0006.tlg008'
p4018
aS'urn:cts:greekLit:tlg0006.tlg010'
p4019
aS'urn:cts:greekLit:tlg0006.tlg014'
p4020
aS'urn:cts:greekLit:tlg0006.tlg003'
p4021
aS'urn:cts:greekLit:tlg0006.tlg012'
p4022
aS'urn:cts:cwkb:869.2292'
p4023
aS'urn:cts:greekLit:tlg0006.tlg009'
p4024
aS'urn:cts:greekLit:tlg0006.tlg001'
p4025
aS'urn:cts:greekLit:tlg0006.tlg007'
p4026
aS'urn:cts:cwkb:870.2307'
p4027
aS'urn:cts:cwkb:871.2310'
p4028
aS'urn:cts:cwkb:871.2308'
p4029
aS'urn:cts:cwkb:871.2327'
p4030
aS'urn:cts:cwkb:871.2315'
p4031
aS'urn:cts:cwkb:871.8259'
p4032
aS'urn:cts:cwkb:871.2312'
p4033
aS'urn:cts:cwkb:871.2311'
p4034
aS'urn:cts:cwkb:871.2330'
p4035
aS'urn:cts:cwkb:871.2325'
p4036
aS'urn:cts:cwkb:871.2320'
p4037
aS'urn:cts:cwkb:871.2331'
p4038
aS'urn:cts:cwkb:871.2321'
p4039
aS'urn:cts:greekLit:tlg2018.tlg002'
p4040
aS'urn:cts:cwkb:871.2316'
p4041
aS'urn:cts:cwkb:871.2309'
p4042
aS'urn:cts:cwkb:871.2329'
p4043
aS'urn:cts:cwkb:871.2317'
p4044
aS'urn:cts:cwkb:871.2324'
p4045
aS'urn:cts:cwkb:871.2328'
p4046
aS'urn:cts:cwkb:871.2323'
p4047
aS'urn:cts:cwkb:871.8090'
p4048
aS'urn:cts:cwkb:871.2319'
p4049
aS'urn:cts:cwkb:871.2322'
p4050
aS'urn:cts:cwkb:871.4517'
p4051
aS'urn:cts:cwkb:871.2318'
p4052
aS'urn:cts:cwkb:871.2314'
p4053
aS'urn:cts:cwkb:871.2313'
p4054
aS'urn:cts:cwkb:872.2334'
p4055
aS'urn:cts:cwkb:872.2350'
p4056
aS'urn:cts:cwkb:872.2341'
p4057
aS'urn:cts:cwkb:872.2342'
p4058
aS'urn:cts:cwkb:872.2352'
p4059
aS'urn:cts:cwkb:872.2349'
p4060
aS'urn:cts:cwkb:872.2348'
p4061
aS'urn:cts:cwkb:872.2338'
p4062
aS'urn:cts:cwkb:872.2337'
p4063
aS'urn:cts:cwkb:872.2343'
p4064
aS'urn:cts:cwkb:872.2346'
p4065
aS'urn:cts:cwkb:872.2344'
p4066
aS'urn:cts:cwkb:872.2335'
p4067
aS'urn:cts:cwkb:872.2336'
p4068
aS'urn:cts:cwkb:872.2333'
p4069
aS'urn:cts:cwkb:872.2347'
p4070
aS'urn:cts:cwkb:872.2345'
p4071
aS'urn:cts:cwkb:872.2332'
p4072
aS'urn:cts:cwkb:872.2340'
p4073
aS'urn:cts:cwkb:872.2353'
p4074
aS'urn:cts:cwkb:872.2351'
p4075
aS'urn:cts:cwkb:872.2339'
p4076
aS'urn:cts:cwkb:873.2354'
p4077
aS'urn:cts:cwkb:874.2362'
p4078
aS'urn:cts:cwkb:874.2355'
p4079
aS'urn:cts:cwkb:874.2357'
p4080
aS'urn:cts:cwkb:874.2367'
p4081
aS'urn:cts:cwkb:874.2368'
p4082
aS'urn:cts:cwkb:874.2361'
p4083
aS'urn:cts:cwkb:874.2371'
p4084
aS'urn:cts:cwkb:874.2363'
p4085
aS'urn:cts:cwkb:874.2364'
p4086
aS'urn:cts:cwkb:874.2366'
p4087
aS'urn:cts:cwkb:874.2359'
p4088
aS'urn:cts:cwkb:874.2369'
p4089
aS'urn:cts:cwkb:874.2372'
p4090
aS'urn:cts:cwkb:874.2365'
p4091
aS'urn:cts:cwkb:874.2358'
p4092
aS'urn:cts:cwkb:874.2373'
p4093
aS'urn:cts:cwkb:874.2370'
p4094
aS'urn:cts:cwkb:874.2356'
p4095
aS'urn:cts:cwkb:874.2360'
p4096
aS'urn:cts:cwkb:875.2374'
p4097
aS'urn:cts:cwkb:876.2375'
p4098
aS'urn:cts:cwkb:877.2376'
p4099
aS'urn:cts:cwkb:878.2377'
p4100
aS'urn:cts:cwkb:879.2378'
p4101
aS'urn:cts:cwkb:880.2379'
p4102
aS'urn:cts:cwkb:881.2380'
p4103
aS'urn:cts:cwkb:882.2381'
p4104
aS'urn:cts:cwkb:883.2382'
p4105
aS'urn:cts:cwkb:884.2383'
p4106
aS'urn:cts:cwkb:885.2388'
p4107
aS'urn:cts:greekLit:tlg0074.tlg004'
p4108
aS'urn:cts:greekLit:tlg0074.tlg002'
p4109
aS'urn:cts:greekLit:tlg0074.tlg001'
p4110
aS'urn:cts:cwkb:885.2386'
p4111
aS'urn:cts:cwkb:885.8129'
p4112
aS'urn:cts:greekLit:tlg0074.tlg006'
p4113
aS'urn:cts:greekLit:tlg0074.tlg005'
p4114
aS'urn:cts:greekLit:tlg0074.tlg003'
p4115
aS'urn:cts:greekLit:tlg2003.tlg004'
p4116
aS'urn:cts:greekLit:tlg2003.tlg006'
p4117
aS'urn:cts:greekLit:tlg2003.tlg002'
p4118
aS'urn:cts:cwkb:886.2395'
p4119
aS'urn:cts:greekLit:tlg2003.tlg012'
p4120
aS'urn:cts:greekLit:tlg2003.tlg017'
p4121
aS'urn:cts:greekLit:tlg2003.tlg010'
p4122
aS'urn:cts:greekLit:tlg2003.tlg013'
p4123
aS'urn:cts:cwkb:886.2396'
p4124
aS'urn:cts:cwkb:886.2398'
p4125
aS'urn:cts:cwkb:886.2393'
p4126
aS'urn:cts:greekLit:tlg2003.tlg007'
p4127
aS'urn:cts:greekLit:tlg2003.tlg011'
p4128
aS'urn:cts:greekLit:tlg2003.tlg009'
p4129
aS'urn:cts:greekLit:tlg2003.tlg003'
p4130
aS'urn:cts:greekLit:tlg2003.tlg005'
p4131
aS'urn:cts:greekLit:tlg2003.tlg001'
p4132
aS'urn:cts:greekLit:tlg2003.tlg008'
p4133
aS'urn:cts:greekLit:tlg0526.tlg001'
p4134
aS'urn:cts:greekLit:tlg0526.tlg003'
p4135
aS'urn:cts:greekLit:tlg0526.tlg002'
p4136
aS'urn:cts:greekLit:tlg0526.tlg004'
p4137
aS'urn:cts:cwkb:888.2404'
p4138
aS'urn:cts:greekLit:tlg0638.tlg004'
p4139
aS'urn:cts:greekLit:tlg0638.tlg001'
p4140
aS'urn:cts:greekLit:tlg0638.tlg007'
p4141
aS'urn:cts:greekLit:tlg0638.tlg006'
p4142
aS'urn:cts:greekLit:tlg0638.tlg005'
p4143
aS'urn:cts:greekLit:tlg0638.tlg003'
p4144
aS'urn:cts:cwkb:889.2410'
p4145
aS'urn:cts:cwkb:889.2411'
p4146
aS'urn:cts:cwkb:890.2469'
p4147
aS'urn:cts:cwkb:890.2459'
p4148
aS'urn:cts:cwkb:890.2506'
p4149
aS'urn:cts:cwkb:890.2493'
p4150
aS'urn:cts:cwkb:890.2451'
p4151
aS'urn:cts:cwkb:890.2418'
p4152
aS'urn:cts:cwkb:890.2475'
p4153
aS'urn:cts:cwkb:890.2510'
p4154
aS'urn:cts:cwkb:890.2426'
p4155
aS'urn:cts:cwkb:890.2454'
p4156
aS'urn:cts:cwkb:890.2424'
p4157
aS'urn:cts:cwkb:890.2502'
p4158
aS'urn:cts:cwkb:890.2420'
p4159
aS'urn:cts:cwkb:890.2498'
p4160
aS'urn:cts:cwkb:890.2423'
p4161
aS'urn:cts:cwkb:890.2483'
p4162
aS'urn:cts:cwkb:890.2428'
p4163
aS'urn:cts:cwkb:890.2471'
p4164
aS'urn:cts:cwkb:890.2497'
p4165
aS'urn:cts:cwkb:890.2518'
p4166
aS'urn:cts:cwkb:890.2415'
p4167
aS'urn:cts:cwkb:890.2479'
p4168
aS'urn:cts:cwkb:890.2461'
p4169
aS'urn:cts:cwkb:890.2519'
p4170
aS'urn:cts:cwkb:890.2460'
p4171
aS'urn:cts:cwkb:890.2489'
p4172
aS'urn:cts:cwkb:890.2444'
p4173
aS'urn:cts:cwkb:890.2488'
p4174
aS'urn:cts:cwkb:890.2504'
p4175
aS'urn:cts:cwkb:890.2491'
p4176
aS'urn:cts:cwkb:890.2430'
p4177
aS'urn:cts:cwkb:890.2494'
p4178
aS'urn:cts:cwkb:890.2477'
p4179
aS'urn:cts:cwkb:890.2448'
p4180
aS'urn:cts:cwkb:890.2438'
p4181
aS'urn:cts:cwkb:890.2450'
p4182
aS'urn:cts:cwkb:890.2487'
p4183
aS'urn:cts:cwkb:890.2440'
p4184
aS'urn:cts:cwkb:890.2472'
p4185
aS'urn:cts:cwkb:890.2442'
p4186
aS'urn:cts:cwkb:890.2496'
p4187
aS'urn:cts:cwkb:890.2417'
p4188
aS'urn:cts:cwkb:890.2434'
p4189
aS'urn:cts:cwkb:890.2446'
p4190
aS'urn:cts:cwkb:890.2449'
p4191
aS'urn:cts:cwkb:890.2445'
p4192
aS'urn:cts:cwkb:890.2465'
p4193
aS'urn:cts:cwkb:890.2466'
p4194
aS'urn:cts:cwkb:890.2414'
p4195
aS'urn:cts:cwkb:890.2501'
p4196
aS'urn:cts:cwkb:890.2507'
p4197
aS'urn:cts:cwkb:890.2425'
p4198
aS'urn:cts:cwkb:890.2456'
p4199
aS'urn:cts:cwkb:890.2513'
p4200
aS'urn:cts:cwkb:890.2462'
p4201
aS'urn:cts:cwkb:890.2452'
p4202
aS'urn:cts:cwkb:890.2480'
p4203
aS'urn:cts:cwkb:890.2476'
p4204
aS'urn:cts:cwkb:890.2439'
p4205
aS'urn:cts:cwkb:890.2416'
p4206
aS'urn:cts:cwkb:890.2505'
p4207
aS'urn:cts:cwkb:890.2509'
p4208
aS'urn:cts:cwkb:890.2468'
p4209
aS'urn:cts:cwkb:890.2421'
p4210
aS'urn:cts:cwkb:890.2455'
p4211
aS'urn:cts:cwkb:890.2431'
p4212
aS'urn:cts:cwkb:890.2517'
p4213
aS'urn:cts:cwkb:890.2436'
p4214
aS'urn:cts:cwkb:890.2503'
p4215
aS'urn:cts:cwkb:890.2463'
p4216
aS'urn:cts:cwkb:890.2486'
p4217
aS'urn:cts:cwkb:890.2500'
p4218
aS'urn:cts:cwkb:890.2464'
p4219
aS'urn:cts:cwkb:890.2499'
p4220
aS'urn:cts:cwkb:890.2467'
p4221
aS'urn:cts:cwkb:890.2412'
p4222
aS'urn:cts:cwkb:890.2482'
p4223
aS'urn:cts:cwkb:890.2435'
p4224
aS'urn:cts:cwkb:890.2437'
p4225
aS'urn:cts:cwkb:890.2481'
p4226
aS'urn:cts:cwkb:890.2432'
p4227
aS'urn:cts:cwkb:890.2427'
p4228
aS'urn:cts:cwkb:890.2443'
p4229
aS'urn:cts:cwkb:890.2433'
p4230
aS'urn:cts:cwkb:890.2470'
p4231
aS'urn:cts:cwkb:890.2511'
p4232
aS'urn:cts:cwkb:890.2474'
p4233
aS'urn:cts:cwkb:890.2453'
p4234
aS'urn:cts:cwkb:890.2485'
p4235
aS'urn:cts:cwkb:890.2413'
p4236
aS'urn:cts:cwkb:890.2495'
p4237
aS'urn:cts:cwkb:890.2447'
p4238
aS'urn:cts:cwkb:890.2473'
p4239
aS'urn:cts:cwkb:890.2512'
p4240
aS'urn:cts:cwkb:890.2478'
p4241
aS'urn:cts:cwkb:890.2515'
p4242
aS'urn:cts:cwkb:890.2484'
p4243
aS'urn:cts:greekLit:tlg0057.tlg010'
p4244
aS'urn:cts:cwkb:890.2429'
p4245
aS'urn:cts:cwkb:890.2492'
p4246
aS'urn:cts:cwkb:890.2490'
p4247
aS'urn:cts:cwkb:890.2516'
p4248
aS'urn:cts:cwkb:890.2514'
p4249
aS'urn:cts:cwkb:890.2458'
p4250
aS'urn:cts:cwkb:890.2508'
p4251
aS'urn:cts:cwkb:890.2422'
p4252
aS'urn:cts:cwkb:890.2520'
p4253
aS'urn:cts:cwkb:890.2419'
p4254
aS'urn:cts:cwkb:890.2441'
p4255
aS'urn:cts:cwkb:891.2521'
p4256
aS'urn:cts:cwkb:892.2522'
p4257
aS'urn:cts:cwkb:893.2523'
p4258
aS'urn:cts:cwkb:893.2524'
p4259
aS'urn:cts:cwkb:894.2528'
p4260
aS'urn:cts:cwkb:894.2529'
p4261
aS'urn:cts:cwkb:894.2526'
p4262
aS'urn:cts:cwkb:894.2527'
p4263
aS'urn:cts:cwkb:894.2525'
p4264
aS'urn:cts:cwkb:895.2530'
p4265
aS'urn:cts:cwkb:896.2576'
p4266
aS'urn:cts:cwkb:896.2553'
p4267
aS'urn:cts:cwkb:896.2563'
p4268
aS'urn:cts:cwkb:896.2586'
p4269
aS'urn:cts:cwkb:896.2575'
p4270
aS'urn:cts:cwkb:896.2554'
p4271
aS'urn:cts:cwkb:896.2568'
p4272
aS'urn:cts:cwkb:896.2541'
p4273
aS'urn:cts:cwkb:896.2587'
p4274
aS'urn:cts:cwkb:896.2557'
p4275
aS'urn:cts:cwkb:896.2589'
p4276
aS'urn:cts:cwkb:896.2555'
p4277
aS'urn:cts:cwkb:896.2556'
p4278
aS'urn:cts:cwkb:896.2534'
p4279
aS'urn:cts:cwkb:896.2531'
p4280
aS'urn:cts:cwkb:896.2579'
p4281
aS'urn:cts:cwkb:896.2569'
p4282
aS'urn:cts:cwkb:896.2573'
p4283
aS'urn:cts:cwkb:896.2549'
p4284
aS'urn:cts:cwkb:896.2551'
p4285
aS'urn:cts:cwkb:896.2566'
p4286
aS'urn:cts:cwkb:896.2565'
p4287
aS'urn:cts:cwkb:896.2585'
p4288
aS'urn:cts:cwkb:896.2550'
p4289
aS'urn:cts:cwkb:896.2580'
p4290
aS'urn:cts:cwkb:896.2574'
p4291
aS'urn:cts:cwkb:896.2537'
p4292
aS'urn:cts:cwkb:896.8121'
p4293
aS'urn:cts:cwkb:896.2571'
p4294
aS'urn:cts:cwkb:896.2559'
p4295
aS'urn:cts:cwkb:896.2536'
p4296
aS'urn:cts:cwkb:896.2578'
p4297
aS'urn:cts:cwkb:896.2538'
p4298
aS'urn:cts:cwkb:896.2560'
p4299
aS'urn:cts:cwkb:896.2540'
p4300
aS'urn:cts:cwkb:896.2547'
p4301
aS'urn:cts:cwkb:896.2552'
p4302
aS'urn:cts:cwkb:896.2544'
p4303
aS'urn:cts:cwkb:896.2546'
p4304
aS'urn:cts:cwkb:896.9546'
p4305
aS'urn:cts:cwkb:896.2535'
p4306
aS'urn:cts:cwkb:896.2561'
p4307
aS'urn:cts:cwkb:896.2539'
p4308
aS'urn:cts:cwkb:896.2545'
p4309
aS'urn:cts:cwkb:896.2532'
p4310
aS'urn:cts:cwkb:896.2567'
p4311
aS'urn:cts:cwkb:896.2533'
p4312
aS'urn:cts:cwkb:896.2584'
p4313
aS'urn:cts:cwkb:896.2570'
p4314
aS'urn:cts:cwkb:896.2542'
p4315
aS'urn:cts:cwkb:896.2558'
p4316
aS'urn:cts:cwkb:896.2588'
p4317
aS'urn:cts:cwkb:896.2577'
p4318
aS'urn:cts:cwkb:896.2583'
p4319
aS'urn:cts:cwkb:896.2543'
p4320
aS'urn:cts:cwkb:896.2562'
p4321
aS'urn:cts:cwkb:896.2582'
p4322
aS'urn:cts:cwkb:896.2564'
p4323
aS'urn:cts:cwkb:896.2581'
p4324
aS'urn:cts:cwkb:896.2572'
p4325
aS'urn:cts:cwkb:896.2548'
p4326
aS'urn:cts:cwkb:897.2648'
p4327
aS'urn:cts:cwkb:897.2621'
p4328
aS'urn:cts:cwkb:897.2646'
p4329
aS'urn:cts:cwkb:897.2633'
p4330
aS'urn:cts:cwkb:897.2605'
p4331
aS'urn:cts:cwkb:897.2631'
p4332
aS'urn:cts:cwkb:897.2634'
p4333
aS'urn:cts:cwkb:897.8122'
p4334
aS'urn:cts:cwkb:897.2599'
p4335
aS'urn:cts:cwkb:897.2643'
p4336
aS'urn:cts:cwkb:897.2652'
p4337
aS'urn:cts:cwkb:897.2604'
p4338
aS'urn:cts:cwkb:897.2620'
p4339
aS'urn:cts:cwkb:897.2613'
p4340
aS'urn:cts:cwkb:897.2644'
p4341
aS'urn:cts:cwkb:897.2655'
p4342
aS'urn:cts:cwkb:897.2647'
p4343
aS'urn:cts:cwkb:897.2625'
p4344
aS'urn:cts:cwkb:897.2615'
p4345
aS'urn:cts:cwkb:897.2654'
p4346
aS'urn:cts:cwkb:897.2593'
p4347
aS'urn:cts:cwkb:897.2598'
p4348
aS'urn:cts:cwkb:897.2597'
p4349
aS'urn:cts:cwkb:897.2638'
p4350
aS'urn:cts:cwkb:897.2618'
p4351
aS'urn:cts:cwkb:897.2590'
p4352
aS'urn:cts:cwkb:897.2606'
p4353
aS'urn:cts:cwkb:897.2650'
p4354
aS'urn:cts:cwkb:897.2610'
p4355
aS'urn:cts:cwkb:897.2591'
p4356
aS'urn:cts:cwkb:897.2616'
p4357
aS'urn:cts:cwkb:897.2651'
p4358
aS'urn:cts:cwkb:897.2640'
p4359
aS'urn:cts:cwkb:897.2611'
p4360
aS'urn:cts:cwkb:897.2656'
p4361
aS'urn:cts:cwkb:897.2612'
p4362
aS'urn:cts:cwkb:897.2639'
p4363
aS'urn:cts:cwkb:897.2658'
p4364
aS'urn:cts:cwkb:897.2637'
p4365
aS'urn:cts:cwkb:897.2628'
p4366
aS'urn:cts:cwkb:897.2627'
p4367
aS'urn:cts:cwkb:897.2624'
p4368
aS'urn:cts:cwkb:897.2595'
p4369
aS'urn:cts:cwkb:897.2626'
p4370
aS'urn:cts:cwkb:897.2609'
p4371
aS'urn:cts:cwkb:897.2623'
p4372
aS'urn:cts:cwkb:897.2641'
p4373
aS'urn:cts:cwkb:897.2594'
p4374
aS'urn:cts:cwkb:897.2619'
p4375
aS'urn:cts:cwkb:897.2657'
p4376
aS'urn:cts:cwkb:897.2629'
p4377
aS'urn:cts:cwkb:897.2635'
p4378
aS'urn:cts:cwkb:897.2632'
p4379
aS'urn:cts:cwkb:897.2630'
p4380
aS'urn:cts:cwkb:897.2622'
p4381
aS'urn:cts:cwkb:897.2608'
p4382
aS'urn:cts:cwkb:897.2607'
p4383
aS'urn:cts:cwkb:897.2592'
p4384
aS'urn:cts:cwkb:897.2614'
p4385
aS'urn:cts:cwkb:897.2617'
p4386
aS'urn:cts:cwkb:897.2600'
p4387
aS'urn:cts:cwkb:897.2596'
p4388
aS'urn:cts:cwkb:897.2603'
p4389
aS'urn:cts:cwkb:897.2601'
p4390
aS'urn:cts:cwkb:897.2642'
p4391
aS'urn:cts:cwkb:897.2636'
p4392
aS'urn:cts:cwkb:897.2653'
p4393
aS'urn:cts:cwkb:897.2649'
p4394
aS'urn:cts:cwkb:897.2602'
p4395
aS'urn:cts:cwkb:897.2645'
p4396
aS'urn:cts:cwkb:898.2659'
p4397
aS'urn:cts:cwkb:898.2661'
p4398
aS'urn:cts:cwkb:898.2663'
p4399
aS'urn:cts:cwkb:898.2666'
p4400
aS'urn:cts:cwkb:898.2660'
p4401
aS'urn:cts:cwkb:898.2662'
p4402
aS'urn:cts:cwkb:898.2665'
p4403
aS'urn:cts:cwkb:898.2664'
p4404
aS'urn:cts:cwkb:899.2667'
p4405
aS'urn:cts:cwkb:899.2669'
p4406
aS'urn:cts:cwkb:900.2670'
p4407
aS'urn:cts:cwkb:901.2671'
p4408
aS'urn:cts:cwkb:903.2673'
p4409
aS'urn:cts:cwkb:904.2677'
p4410
aS'urn:cts:cwkb:904.2678'
p4411
aS'urn:cts:cwkb:904.2679'
p4412
aS'urn:cts:cwkb:904.2676'
p4413
aS'urn:cts:cwkb:905.2680'
p4414
aS'urn:cts:cwkb:906.2681'
p4415
aS'urn:cts:cwkb:907.2682'
p4416
aS'urn:cts:cwkb:908.2683'
p4417
aS'urn:cts:cwkb:909.2685'
p4418
aS'urn:cts:cwkb:910.2686'
p4419
aS'urn:cts:cwkb:911.2687'
p4420
aS'urn:cts:cwkb:913.2689'
p4421
aS'urn:cts:cwkb:914.2690'
p4422
aS'urn:cts:greekLit:tlg0016.tlg001'
p4423
aS'urn:cts:cwkb:916.2696'
p4424
aS'urn:cts:cwkb:916.2703'
p4425
aS'urn:cts:cwkb:916.2693'
p4426
aS'urn:cts:cwkb:916.2695'
p4427
aS'urn:cts:cwkb:916.2697'
p4428
aS'urn:cts:cwkb:916.2692'
p4429
aS'urn:cts:cwkb:916.2704'
p4430
aS'urn:cts:cwkb:916.2698'
p4431
aS'urn:cts:cwkb:916.2701'
p4432
aS'urn:cts:cwkb:916.2702'
p4433
aS'urn:cts:cwkb:916.2699'
p4434
aS'urn:cts:cwkb:916.2700'
p4435
aS'urn:cts:cwkb:916.2694'
p4436
aS'urn:cts:greekLit:tlg0020.tlg001'
p4437
aS'urn:cts:greekLit:tlg0020.tlg002'
p4438
aS'urn:cts:cwkb:917.9620'
p4439
aS'urn:cts:greekLit:tlg0020.tlg003'
p4440
aS'urn:cts:cwkb:918.2725'
p4441
aS'urn:cts:cwkb:918.2718'
p4442
aS'urn:cts:cwkb:918.2720'
p4443
aS'urn:cts:cwkb:918.2727'
p4444
aS'urn:cts:cwkb:918.2728'
p4445
aS'urn:cts:cwkb:918.2724'
p4446
aS'urn:cts:cwkb:918.2709'
p4447
aS'urn:cts:cwkb:918.2708'
p4448
aS'urn:cts:cwkb:918.2711'
p4449
aS'urn:cts:cwkb:918.2716'
p4450
aS'urn:cts:cwkb:918.2715'
p4451
aS'urn:cts:cwkb:918.2717'
p4452
aS'urn:cts:cwkb:918.2723'
p4453
aS'urn:cts:cwkb:918.2714'
p4454
aS'urn:cts:cwkb:918.2713'
p4455
aS'urn:cts:cwkb:918.2722'
p4456
aS'urn:cts:cwkb:918.2712'
p4457
aS'urn:cts:cwkb:918.2719'
p4458
aS'urn:cts:cwkb:918.2729'
p4459
aS'urn:cts:cwkb:918.2710'
p4460
aS'urn:cts:cwkb:918.2721'
p4461
aS'urn:cts:cwkb:918.2730'
p4462
aS'urn:cts:cwkb:918.2726'
p4463
aS'urn:cts:cwkb:919.2731'
p4464
aS'urn:cts:cwkb:920.2732'
p4465
aS'urn:cts:cwkb:921.7985'
p4466
aS'urn:cts:cwkb:921.2733'
p4467
aS'urn:cts:cwkb:922.2734'
p4468
aS'urn:cts:cwkb:923.2775'
p4469
aS'urn:cts:cwkb:923.2768'
p4470
aS'urn:cts:cwkb:923.2754'
p4471
aS'urn:cts:cwkb:923.2748'
p4472
aS'urn:cts:cwkb:923.2756'
p4473
aS'urn:cts:cwkb:923.2753'
p4474
aS'urn:cts:greekLit:tlg0627.tlg003'
p4475
aS'urn:cts:greekLit:tlg0627.tlg005'
p4476
aS'urn:cts:cwkb:923.2747'
p4477
aS'urn:cts:cwkb:923.2742'
p4478
aS'urn:cts:greekLit:tlg0627.tlg046'
p4479
aS'urn:cts:cwkb:923.2752'
p4480
aS'urn:cts:cwkb:923.2777'
p4481
aS'urn:cts:greekLit:tlg0627.tlg004'
p4482
aS'urn:cts:cwkb:923.2788'
p4483
aS'urn:cts:cwkb:923.2770'
p4484
aS'urn:cts:cwkb:923.2765'
p4485
aS'urn:cts:greekLit:tlg0627.tlg029'
p4486
aS'urn:cts:cwkb:923.2771'
p4487
aS'urn:cts:greekLit:tlg0627.tlg006'
p4488
aS'urn:cts:greekLit:tlg0627.tlg002'
p4489
aS'urn:cts:cwkb:923.2758'
p4490
aS'urn:cts:greekLit:tlg0627.tlg012'
p4491
aS'urn:cts:cwkb:923.2738'
p4492
aS'urn:cts:cwkb:923.2736'
p4493
aS'urn:cts:greekLit:tlg0627.tlg011'
p4494
aS'urn:cts:greekLit:tlg0627.tlg051'
p4495
aS'urn:cts:greekLit:tlg0627.tlg010'
p4496
aS'urn:cts:cwkb:923.2773'
p4497
aS'urn:cts:cwkb:923.2741'
p4498
aS'urn:cts:greekLit:tlg0627.tlg007'
p4499
aS'urn:cts:cwkb:923.2781'
p4500
aS'urn:cts:greekLit:tlg0627.tlg028'
p4501
aS'urn:cts:greekLit:tlg0627.tlg001'
p4502
aS'urn:cts:cwkb:923.2782'
p4503
aS'urn:cts:cwkb:923.2750'
p4504
aS'urn:cts:cwkb:923.2780'
p4505
aS'urn:cts:cwkb:923.2737'
p4506
aS'urn:cts:greekLit:tlg0627.tlg013'
p4507
aS'urn:cts:greekLit:tlg0627.tlg030'
p4508
aS'urn:cts:greekLit:tlg0627.tlg009'
p4509
aS'urn:cts:cwkb:923.2778'
p4510
aS'urn:cts:cwkb:923.2745'
p4511
aS'urn:cts:cwkb:923.2764'
p4512
aS'urn:cts:greekLit:tlg0627.tlg008'
p4513
aS'urn:cts:cwkb:923.2746'
p4514
aS'urn:cts:greekLit:tlg0627.tlg027'
p4515
aS'urn:cts:cwkb:923.2763'
p4516
aS'urn:cts:cwkb:923.2776'
p4517
aS'urn:cts:greekLit:tlg0627.tlg014'
p4518
aS'urn:cts:cwkb:923.2760'
p4519
aS'urn:cts:cwkb:923.2762'
p4520
aS'urn:cts:cwkb:923.2784'
p4521
aS'urn:cts:cwkb:923.2769'
p4522
aS'urn:cts:cwkb:923.2761'
p4523
aS'urn:cts:cwkb:924.2796'
p4524
aS'urn:cts:cwkb:924.2799'
p4525
aS'urn:cts:cwkb:924.2800'
p4526
aS'urn:cts:cwkb:924.2802'
p4527
aS'urn:cts:cwkb:924.2795'
p4528
aS'urn:cts:cwkb:924.2807'
p4529
aS'urn:cts:cwkb:924.2806'
p4530
aS'urn:cts:cwkb:924.2809'
p4531
aS'urn:cts:cwkb:924.2805'
p4532
aS'urn:cts:cwkb:924.9566'
p4533
aS'urn:cts:cwkb:924.2794'
p4534
aS'urn:cts:cwkb:924.2791'
p4535
aS'urn:cts:cwkb:924.2793'
p4536
aS'urn:cts:cwkb:924.2798'
p4537
aS'urn:cts:cwkb:924.2804'
p4538
aS'urn:cts:cwkb:924.2801'
p4539
aS'urn:cts:cwkb:924.2803'
p4540
aS'urn:cts:cwkb:924.2790'
p4541
aS'urn:cts:cwkb:924.2792'
p4542
aS'urn:cts:cwkb:924.2797'
p4543
aS'urn:cts:cwkb:924.2811'
p4544
aS'urn:cts:cwkb:924.2808'
p4545
aS'urn:cts:cwkb:924.2810'
p4546
aS'urn:cts:cwkb:925.2812'
p4547
aS'urn:cts:cwkb:926.2813'
p4548
aS'urn:cts:cwkb:927.2814'
p4549
aS'urn:cts:greekLit:tlg0012.tlg001'
p4550
aS'urn:cts:greekLit:tlg0012.tlg002'
p4551
aS'urn:cts:cwkb:928.2817'
p4552
aS'urn:cts:greekLit:tlg0013.tlg031'
p4553
aS'urn:cts:greekLit:tlg0013.tlg007'
p4554
aS'urn:cts:greekLit:tlg0013.tlg003'
p4555
aS'urn:cts:greekLit:tlg0013.tlg009'
p4556
aS'urn:cts:greekLit:tlg0013.tlg005'
p4557
aS'urn:cts:greekLit:tlg0013.tlg011'
p4558
aS'urn:cts:greekLit:tlg0013.tlg008'
p4559
aS'urn:cts:greekLit:tlg0013.tlg017'
p4560
aS'urn:cts:greekLit:tlg0013.tlg002'
p4561
aS'urn:cts:greekLit:tlg0013.tlg014'
p4562
aS'urn:cts:greekLit:tlg0013.tlg024'
p4563
aS'urn:cts:greekLit:tlg0013.tlg019'
p4564
aS'urn:cts:greekLit:tlg0013.tlg025'
p4565
aS'urn:cts:greekLit:tlg0013.tlg018'
p4566
aS'urn:cts:greekLit:tlg0013.tlg022'
p4567
aS'urn:cts:greekLit:tlg0013.tlg021'
p4568
aS'urn:cts:greekLit:tlg0013.tlg001'
p4569
aS'urn:cts:greekLit:tlg0013.tlg004'
p4570
aS'urn:cts:greekLit:tlg0013.tlg012'
p4571
aS'urn:cts:cwkb:929.5191'
p4572
aS'urn:cts:greekLit:tlg0013.tlg016'
p4573
aS'urn:cts:greekLit:tlg0013.tlg029'
p4574
aS'urn:cts:greekLit:tlg0013.tlg023'
p4575
aS'urn:cts:greekLit:tlg0013.tlg028'
p4576
aS'urn:cts:greekLit:tlg0013.tlg010'
p4577
aS'urn:cts:greekLit:tlg0013.tlg027'
p4578
aS'urn:cts:greekLit:tlg0013.tlg033'
p4579
aS'urn:cts:greekLit:tlg0013.tlg030'
p4580
aS'urn:cts:greekLit:tlg0013.tlg015'
p4581
aS'urn:cts:greekLit:tlg0013.tlg020'
p4582
aS'urn:cts:greekLit:tlg0013.tlg026'
p4583
aS'urn:cts:greekLit:tlg0013.tlg032'
p4584
aS'urn:cts:greekLit:tlg0013.tlg013'
p4585
aS'urn:cts:greekLit:tlg0013.tlg006'
p4586
aS'urn:cts:cwkb:930.4594'
p4587
aS'urn:cts:greekLit:tlg0030.tlg005'
p4588
aS'urn:cts:greekLit:tlg0030.tlg006'
p4589
aS'urn:cts:greekLit:tlg0030.tlg001'
p4590
aS'urn:cts:greekLit:tlg0030.tlg004'
p4591
aS'urn:cts:greekLit:tlg0030.tlg002'
p4592
aS'urn:cts:greekLit:tlg0030.tlg003'
p4593
aS'urn:cts:cwkb:931.2837'
p4594
aS'urn:cts:cwkb:931.2838'
p4595
aS'urn:cts:cwkb:932.2844'
p4596
aS'urn:cts:cwkb:932.2841'
p4597
aS'urn:cts:cwkb:932.2843'
p4598
aS'urn:cts:cwkb:932.2840'
p4599
aS'urn:cts:cwkb:932.2845'
p4600
aS'urn:cts:cwkb:932.2842'
p4601
aS'urn:cts:cwkb:933.2847'
p4602
aS'urn:cts:cwkb:933.2846'
p4603
aS'urn:cts:cwkb:934.2848'
p4604
aS'urn:cts:cwkb:935.2849'
p4605
aS'urn:cts:cwkb:936.2850'
p4606
aS'urn:cts:greekLit:tlg0017.tlg009'
p4607
aS'urn:cts:greekLit:tlg0017.tlg007'
p4608
aS'urn:cts:greekLit:tlg0017.tlg005'
p4609
aS'urn:cts:greekLit:tlg0017.tlg008'
p4610
aS'urn:cts:greekLit:tlg0017.tlg006'
p4611
aS'urn:cts:greekLit:tlg0017.tlg011'
p4612
aS'urn:cts:greekLit:tlg0017.tlg003'
p4613
aS'urn:cts:greekLit:tlg0017.tlg002'
p4614
aS'urn:cts:greekLit:tlg0017.tlg012'
p4615
aS'urn:cts:greekLit:tlg0017.tlg010'
p4616
aS'urn:cts:greekLit:tlg0017.tlg004'
p4617
aS'urn:cts:greekLit:tlg0017.tlg001'
p4618
aS'urn:cts:cwkb:938.2863'
p4619
aS'urn:cts:greekLit:tlg0010.tlg024'
p4620
aS'urn:cts:greekLit:tlg0010.tlg028'
p4621
aS'urn:cts:greekLit:tlg0010.tlg015'
p4622
aS'urn:cts:greekLit:tlg0010.tlg025'
p4623
aS'urn:cts:greekLit:tlg0010.tlg012'
p4624
aS'urn:cts:greekLit:tlg0010.tlg019'
p4625
aS'urn:cts:greekLit:tlg0010.tlg018'
p4626
aS'urn:cts:greekLit:tlg0010.tlg011'
p4627
aS'urn:cts:greekLit:tlg0010.tlg022'
p4628
aS'urn:cts:greekLit:tlg0010.tlg023'
p4629
aS'urn:cts:greekLit:tlg0010.tlg005'
p4630
aS'urn:cts:greekLit:tlg0010.tlg009'
p4631
aS'urn:cts:greekLit:tlg0010.tlg016'
p4632
aS'urn:cts:greekLit:tlg0010.tlg010'
p4633
aS'urn:cts:greekLit:tlg0010.tlg030'
p4634
aS'urn:cts:greekLit:tlg0010.tlg026'
p4635
aS'urn:cts:greekLit:tlg0010.tlg014'
p4636
aS'urn:cts:greekLit:tlg0010.tlg008'
p4637
aS'urn:cts:greekLit:tlg0010.tlg021'
p4638
aS'urn:cts:greekLit:tlg0010.tlg003'
p4639
aS'urn:cts:greekLit:tlg0010.tlg007'
p4640
aS'urn:cts:greekLit:tlg0010.tlg029'
p4641
aS'urn:cts:greekLit:tlg0010.tlg006'
p4642
aS'urn:cts:greekLit:tlg0010.tlg001'
p4643
aS'urn:cts:greekLit:tlg0010.tlg013'
p4644
aS'urn:cts:greekLit:tlg0010.tlg002'
p4645
aS'urn:cts:greekLit:tlg0010.tlg004'
p4646
aS'urn:cts:greekLit:tlg0010.tlg027'
p4647
aS'urn:cts:greekLit:tlg0010.tlg017'
p4648
aS'urn:cts:greekLit:tlg0010.tlg020'
p4649
aS'urn:cts:cwkb:941.3177'
p4650
aS'urn:cts:cwkb:941.3037'
p4651
aS'urn:cts:cwkb:941.3000'
p4652
aS'urn:cts:cwkb:941.2947'
p4653
aS'urn:cts:cwkb:941.3157'
p4654
aS'urn:cts:cwkb:941.3173'
p4655
aS'urn:cts:cwkb:941.2942'
p4656
aS'urn:cts:cwkb:941.3136'
p4657
aS'urn:cts:cwkb:941.3053'
p4658
aS'urn:cts:cwkb:941.3188'
p4659
aS'urn:cts:cwkb:941.3010'
p4660
aS'urn:cts:cwkb:941.2999'
p4661
aS'urn:cts:cwkb:941.2983'
p4662
aS'urn:cts:cwkb:941.3077'
p4663
aS'urn:cts:cwkb:941.3071'
p4664
aS'urn:cts:cwkb:941.2955'
p4665
aS'urn:cts:cwkb:941.3175'
p4666
aS'urn:cts:cwkb:941.2996'
p4667
aS'urn:cts:cwkb:941.3181'
p4668
aS'urn:cts:cwkb:941.2926'
p4669
aS'urn:cts:cwkb:941.2940'
p4670
aS'urn:cts:cwkb:941.3094'
p4671
aS'urn:cts:cwkb:941.3011'
p4672
aS'urn:cts:cwkb:941.3066'
p4673
aS'urn:cts:cwkb:941.3131'
p4674
aS'urn:cts:cwkb:941.2904'
p4675
aS'urn:cts:cwkb:941.2920'
p4676
aS'urn:cts:cwkb:941.3016'
p4677
aS'urn:cts:cwkb:941.3176'
p4678
aS'urn:cts:cwkb:941.3129'
p4679
aS'urn:cts:cwkb:941.3073'
p4680
aS'urn:cts:cwkb:941.2949'
p4681
aS'urn:cts:cwkb:941.3109'
p4682
aS'urn:cts:cwkb:941.3142'
p4683
aS'urn:cts:cwkb:941.3092'
p4684
aS'urn:cts:cwkb:941.3068'
p4685
aS'urn:cts:cwkb:941.2898'
p4686
aS'urn:cts:cwkb:941.2924'
p4687
aS'urn:cts:cwkb:941.3150'
p4688
aS'urn:cts:cwkb:941.3069'
p4689
aS'urn:cts:cwkb:941.2937'
p4690
aS'urn:cts:cwkb:941.3111'
p4691
aS'urn:cts:cwkb:941.3044'
p4692
aS'urn:cts:cwkb:941.3162'
p4693
aS'urn:cts:cwkb:941.8229'
p4694
aS'urn:cts:cwkb:941.3022'
p4695
aS'urn:cts:cwkb:941.3012'
p4696
aS'urn:cts:cwkb:941.3047'
p4697
aS'urn:cts:cwkb:941.3062'
p4698
aS'urn:cts:cwkb:941.2908'
p4699
aS'urn:cts:cwkb:941.3140'
p4700
aS'urn:cts:cwkb:941.3110'
p4701
aS'urn:cts:cwkb:941.2985'
p4702
aS'urn:cts:cwkb:941.3097'
p4703
aS'urn:cts:cwkb:941.2913'
p4704
aS'urn:cts:cwkb:941.3178'
p4705
aS'urn:cts:cwkb:941.2914'
p4706
aS'urn:cts:cwkb:941.2927'
p4707
aS'urn:cts:cwkb:941.3013'
p4708
aS'urn:cts:cwkb:941.3107'
p4709
aS'urn:cts:cwkb:941.2915'
p4710
aS'urn:cts:cwkb:941.3166'
p4711
aS'urn:cts:cwkb:941.3143'
p4712
aS'urn:cts:cwkb:941.3153'
p4713
aS'urn:cts:cwkb:941.2984'
p4714
aS'urn:cts:cwkb:941.3001'
p4715
aS'urn:cts:cwkb:941.3018'
p4716
aS'urn:cts:cwkb:941.3084'
p4717
aS'urn:cts:cwkb:941.2971'
p4718
aS'urn:cts:cwkb:941.3168'
p4719
aS'urn:cts:cwkb:941.3026'
p4720
aS'urn:cts:cwkb:941.3055'
p4721
aS'urn:cts:cwkb:941.2909'
p4722
aS'urn:cts:cwkb:941.2911'
p4723
aS'urn:cts:cwkb:941.3059'
p4724
aS'urn:cts:cwkb:941.3155'
p4725
aS'urn:cts:cwkb:941.2928'
p4726
aS'urn:cts:cwkb:941.3163'
p4727
aS'urn:cts:cwkb:941.3043'
p4728
aS'urn:cts:cwkb:941.3115'
p4729
aS'urn:cts:cwkb:941.2910'
p4730
aS'urn:cts:cwkb:941.3051'
p4731
aS'urn:cts:cwkb:941.2952'
p4732
aS'urn:cts:cwkb:941.3031'
p4733
aS'urn:cts:cwkb:941.2992'
p4734
aS'urn:cts:cwkb:941.2977'
p4735
aS'urn:cts:cwkb:941.2969'
p4736
aS'urn:cts:cwkb:941.3137'
p4737
aS'urn:cts:cwkb:941.3017'
p4738
aS'urn:cts:cwkb:941.3148'
p4739
aS'urn:cts:cwkb:941.2933'
p4740
aS'urn:cts:cwkb:941.3124'
p4741
aS'urn:cts:cwkb:941.3095'
p4742
aS'urn:cts:cwkb:941.2978'
p4743
aS'urn:cts:cwkb:941.2900'
p4744
aS'urn:cts:cwkb:941.3049'
p4745
aS'urn:cts:cwkb:941.3125'
p4746
aS'urn:cts:cwkb:941.3080'
p4747
aS'urn:cts:cwkb:941.2993'
p4748
aS'urn:cts:cwkb:941.3056'
p4749
aS'urn:cts:cwkb:941.2906'
p4750
aS'urn:cts:cwkb:941.2994'
p4751
aS'urn:cts:cwkb:941.3019'
p4752
aS'urn:cts:cwkb:941.3093'
p4753
aS'urn:cts:cwkb:941.3015'
p4754
aS'urn:cts:cwkb:941.2923'
p4755
aS'urn:cts:cwkb:941.3034'
p4756
aS'urn:cts:cwkb:941.3007'
p4757
aS'urn:cts:cwkb:941.3138'
p4758
aS'urn:cts:cwkb:941.3002'
p4759
aS'urn:cts:cwkb:941.3156'
p4760
aS'urn:cts:cwkb:941.3042'
p4761
aS'urn:cts:cwkb:941.2902'
p4762
aS'urn:cts:cwkb:941.2954'
p4763
aS'urn:cts:cwkb:941.3020'
p4764
aS'urn:cts:cwkb:941.3003'
p4765
aS'urn:cts:cwkb:941.3030'
p4766
aS'urn:cts:cwkb:941.3045'
p4767
aS'urn:cts:cwkb:941.3046'
p4768
aS'urn:cts:cwkb:941.3122'
p4769
aS'urn:cts:cwkb:941.3091'
p4770
aS'urn:cts:cwkb:941.2981'
p4771
aS'urn:cts:cwkb:941.2960'
p4772
aS'urn:cts:cwkb:941.2990'
p4773
aS'urn:cts:cwkb:941.3008'
p4774
aS'urn:cts:cwkb:941.3005'
p4775
aS'urn:cts:cwkb:941.3103'
p4776
aS'urn:cts:cwkb:941.3164'
p4777
aS'urn:cts:cwkb:941.3149'
p4778
aS'urn:cts:cwkb:941.2950'
p4779
aS'urn:cts:cwkb:941.3127'
p4780
aS'urn:cts:cwkb:941.3139'
p4781
aS'urn:cts:cwkb:941.2953'
p4782
aS'urn:cts:cwkb:941.3182'
p4783
aS'urn:cts:cwkb:941.2980'
p4784
aS'urn:cts:cwkb:941.2901'
p4785
aS'urn:cts:cwkb:941.2991'
p4786
aS'urn:cts:cwkb:941.3126'
p4787
aS'urn:cts:cwkb:941.2917'
p4788
aS'urn:cts:cwkb:941.3063'
p4789
aS'urn:cts:cwkb:941.3006'
p4790
aS'urn:cts:cwkb:941.3165'
p4791
aS'urn:cts:cwkb:941.2916'
p4792
aS'urn:cts:cwkb:941.3027'
p4793
aS'urn:cts:cwkb:941.3086'
p4794
aS'urn:cts:cwkb:941.3032'
p4795
aS'urn:cts:cwkb:941.3151'
p4796
aS'urn:cts:cwkb:941.3184'
p4797
aS'urn:cts:cwkb:941.3172'
p4798
aS'urn:cts:cwkb:941.2964'
p4799
aS'urn:cts:cwkb:941.3159'
p4800
aS'urn:cts:cwkb:941.3048'
p4801
aS'urn:cts:cwkb:941.3119'
p4802
aS'urn:cts:cwkb:941.3036'
p4803
aS'urn:cts:cwkb:941.3135'
p4804
aS'urn:cts:cwkb:941.9188'
p4805
aS'urn:cts:cwkb:941.3029'
p4806
aS'urn:cts:cwkb:941.3118'
p4807
aS'urn:cts:cwkb:941.2934'
p4808
aS'urn:cts:cwkb:941.3171'
p4809
aS'urn:cts:cwkb:941.3075'
p4810
aS'urn:cts:cwkb:941.3174'
p4811
aS'urn:cts:cwkb:941.3067'
p4812
aS'urn:cts:cwkb:941.3158'
p4813
aS'urn:cts:cwkb:941.3050'
p4814
aS'urn:cts:cwkb:941.2995'
p4815
aS'urn:cts:cwkb:941.2957'
p4816
aS'urn:cts:cwkb:941.3090'
p4817
aS'urn:cts:cwkb:941.2919'
p4818
aS'urn:cts:cwkb:941.2998'
p4819
aS'urn:cts:cwkb:941.2893'
p4820
aS'urn:cts:cwkb:941.2943'
p4821
aS'urn:cts:cwkb:941.3105'
p4822
aS'urn:cts:cwkb:941.3130'
p4823
aS'urn:cts:cwkb:941.2921'
p4824
aS'urn:cts:cwkb:941.3114'
p4825
aS'urn:cts:cwkb:941.2938'
p4826
aS'urn:cts:cwkb:941.2982'
p4827
aS'urn:cts:cwkb:941.2948'
p4828
aS'urn:cts:cwkb:941.3058'
p4829
aS'urn:cts:cwkb:941.3096'
p4830
aS'urn:cts:cwkb:941.3113'
p4831
aS'urn:cts:cwkb:941.3033'
p4832
aS'urn:cts:cwkb:941.3098'
p4833
aS'urn:cts:cwkb:941.2997'
p4834
aS'urn:cts:cwkb:941.2905'
p4835
aS'urn:cts:cwkb:941.2972'
p4836
aS'urn:cts:cwkb:941.2989'
p4837
aS'urn:cts:cwkb:941.3128'
p4838
aS'urn:cts:cwkb:941.3024'
p4839
aS'urn:cts:cwkb:941.3035'
p4840
aS'urn:cts:cwkb:941.2956'
p4841
aS'urn:cts:cwkb:941.3100'
p4842
aS'urn:cts:cwkb:941.2932'
p4843
aS'urn:cts:cwkb:941.3025'
p4844
aS'urn:cts:cwkb:941.3054'
p4845
aS'urn:cts:cwkb:941.2925'
p4846
aS'urn:cts:cwkb:941.3088'
p4847
aS'urn:cts:cwkb:941.3101'
p4848
aS'urn:cts:cwkb:941.3160'
p4849
aS'urn:cts:cwkb:941.3141'
p4850
aS'urn:cts:cwkb:941.3117'
p4851
aS'urn:cts:cwkb:941.3120'
p4852
aS'urn:cts:cwkb:941.2986'
p4853
aS'urn:cts:cwkb:941.3170'
p4854
aS'urn:cts:cwkb:941.2944'
p4855
aS'urn:cts:cwkb:941.2946'
p4856
aS'urn:cts:cwkb:941.3023'
p4857
aS'urn:cts:cwkb:941.3183'
p4858
aS'urn:cts:cwkb:941.3061'
p4859
aS'urn:cts:cwkb:941.2936'
p4860
aS'urn:cts:cwkb:941.2935'
p4861
aS'urn:cts:cwkb:941.2958'
p4862
aS'urn:cts:cwkb:941.3161'
p4863
aS'urn:cts:cwkb:941.3116'
p4864
aS'urn:cts:cwkb:941.3083'
p4865
aS'urn:cts:cwkb:941.2959'
p4866
aS'urn:cts:cwkb:941.3009'
p4867
aS'urn:cts:cwkb:941.2988'
p4868
aS'urn:cts:cwkb:941.3038'
p4869
aS'urn:cts:cwkb:941.3169'
p4870
aS'urn:cts:cwkb:941.3060'
p4871
aS'urn:cts:cwkb:941.2965'
p4872
aS'urn:cts:cwkb:941.3185'
p4873
aS'urn:cts:cwkb:941.2974'
p4874
aS'urn:cts:cwkb:941.3021'
p4875
aS'urn:cts:cwkb:941.3154'
p4876
aS'urn:cts:cwkb:941.3145'
p4877
aS'urn:cts:cwkb:941.2945'
p4878
aS'urn:cts:cwkb:941.3187'
p4879
aS'urn:cts:cwkb:941.2970'
p4880
aS'urn:cts:cwkb:941.3052'
p4881
aS'urn:cts:cwkb:941.3074'
p4882
aS'urn:cts:cwkb:941.3076'
p4883
aS'urn:cts:cwkb:941.3147'
p4884
aS'urn:cts:cwkb:941.3134'
p4885
aS'urn:cts:cwkb:941.3078'
p4886
aS'urn:cts:cwkb:941.2897'
p4887
aS'urn:cts:cwkb:941.3152'
p4888
aS'urn:cts:cwkb:941.3028'
p4889
aS'urn:cts:cwkb:941.3112'
p4890
aS'urn:cts:cwkb:941.3180'
p4891
aS'urn:cts:cwkb:941.2931'
p4892
aS'urn:cts:cwkb:941.2976'
p4893
aS'urn:cts:cwkb:941.3014'
p4894
aS'urn:cts:cwkb:941.2929'
p4895
aS'urn:cts:cwkb:941.3039'
p4896
aS'urn:cts:cwkb:941.3087'
p4897
aS'urn:cts:cwkb:941.3057'
p4898
aS'urn:cts:cwkb:941.3085'
p4899
aS'urn:cts:cwkb:941.3104'
p4900
aS'urn:cts:cwkb:941.2907'
p4901
aS'urn:cts:cwkb:941.2896'
p4902
aS'urn:cts:cwkb:941.2912'
p4903
aS'urn:cts:cwkb:941.2968'
p4904
aS'urn:cts:cwkb:941.2922'
p4905
aS'urn:cts:cwkb:941.3070'
p4906
aS'urn:cts:cwkb:941.2975'
p4907
aS'urn:cts:cwkb:941.2979'
p4908
aS'urn:cts:cwkb:941.2899'
p4909
aS'urn:cts:cwkb:941.2963'
p4910
aS'urn:cts:cwkb:941.2966'
p4911
aS'urn:cts:cwkb:941.3179'
p4912
aS'urn:cts:cwkb:941.2973'
p4913
aS'urn:cts:cwkb:941.3081'
p4914
aS'urn:cts:cwkb:941.3072'
p4915
aS'urn:cts:cwkb:941.2930'
p4916
aS'urn:cts:cwkb:941.3146'
p4917
aS'urn:cts:cwkb:941.2918'
p4918
aS'urn:cts:cwkb:941.3082'
p4919
aS'urn:cts:cwkb:941.2967'
p4920
aS'urn:cts:cwkb:941.2951'
p4921
aS'urn:cts:cwkb:941.3089'
p4922
aS'urn:cts:cwkb:941.3099'
p4923
aS'urn:cts:cwkb:941.2903'
p4924
aS'urn:cts:cwkb:941.3121'
p4925
aS'urn:cts:cwkb:941.2941'
p4926
aS'urn:cts:cwkb:941.3065'
p4927
aS'urn:cts:cwkb:941.3004'
p4928
aS'urn:cts:cwkb:941.2895'
p4929
aS'urn:cts:cwkb:941.3167'
p4930
aS'urn:cts:cwkb:941.3079'
p4931
aS'urn:cts:cwkb:941.3186'
p4932
aS'urn:cts:cwkb:941.3102'
p4933
aS'urn:cts:cwkb:941.2961'
p4934
aS'urn:cts:cwkb:941.2939'
p4935
aS'urn:cts:cwkb:941.3040'
p4936
aS'urn:cts:cwkb:941.3064'
p4937
aS'urn:cts:cwkb:941.2894'
p4938
aS'urn:cts:cwkb:941.3041'
p4939
aS'urn:cts:cwkb:941.3108'
p4940
aS'urn:cts:cwkb:941.2987'
p4941
aS'urn:cts:cwkb:941.2962'
p4942
aS'urn:cts:cwkb:941.3106'
p4943
aS'urn:cts:cwkb:941.3144'
p4944
aS'urn:cts:cwkb:941.3123'
p4945
aS'urn:cts:cwkb:942.3189'
p4946
aS'urn:cts:cwkb:943.3190'
p4947
aS'urn:cts:cwkb:943.4531'
p4948
aS'urn:cts:cwkb:944.3191'
p4949
aS'urn:cts:cwkb:945.3192'
p4950
aS'urn:cts:cwkb:946.3193'
p4951
aS'urn:cts:cwkb:947.3194'
p4952
aS'urn:cts:cwkb:948.3195'
p4953
aS'urn:cts:cwkb:949.3196'
p4954
aS'urn:cts:cwkb:949.3197'
p4955
aS'urn:cts:cwkb:949.3198'
p4956
aS'urn:cts:cwkb:950.3200'
p4957
aS'urn:cts:cwkb:950.3199'
p4958
aS'urn:cts:cwkb:951.3204'
p4959
aS'urn:cts:cwkb:951.3206'
p4960
aS'urn:cts:cwkb:951.3208'
p4961
aS'urn:cts:cwkb:951.3203'
p4962
aS'urn:cts:cwkb:951.3205'
p4963
aS'urn:cts:cwkb:951.3207'
p4964
aS'urn:cts:cwkb:951.3209'
p4965
aS'urn:cts:cwkb:951.3202'
p4966
aS'urn:cts:cwkb:951.3201'
p4967
aS'urn:cts:cwkb:952.3210'
p4968
aS'urn:cts:cwkb:953.7986'
p4969
aS'urn:cts:cwkb:953.3211'
p4970
aS'urn:cts:greekLit:tlg0561.tlg001'
p4971
aS'urn:cts:greekLit:tlg0062.tlg002'
p4972
aS'urn:cts:greekLit:tlg0062.tlg069'
p4973
aS'urn:cts:greekLit:tlg0062.tlg064'
p4974
aS'urn:cts:greekLit:tlg0062.tlg036'
p4975
aS'urn:cts:greekLit:tlg0062.tlg051'
p4976
aS'urn:cts:greekLit:tlg0062.tlg033'
p4977
aS'urn:cts:greekLit:tlg0062.tlg008'
p4978
aS'urn:cts:greekLit:tlg0062.tlg034'
p4979
aS'urn:cts:greekLit:tlg0062.tlg049'
p4980
aS'urn:cts:greekLit:tlg0062.tlg057'
p4981
aS'urn:cts:greekLit:tlg0062.tlg047'
p4982
aS'urn:cts:greekLit:tlg0062.tlg021'
p4983
aS'urn:cts:greekLit:tlg0062.tlg058'
p4984
aS'urn:cts:greekLit:tlg0062.tlg063'
p4985
aS'urn:cts:greekLit:tlg0062.tlg053'
p4986
aS'urn:cts:greekLit:tlg0062.tlg070'
p4987
aS'urn:cts:greekLit:tlg0062.tlg004'
p4988
aS'urn:cts:greekLit:tlg0062.tlg032'
p4989
aS'urn:cts:greekLit:tlg0062.tlg015'
p4990
aS'urn:cts:greekLit:tlg0062.tlg071'
p4991
aS'urn:cts:greekLit:tlg0062.tlg050'
p4992
aS'urn:cts:greekLit:tlg0062.tlg030'
p4993
aS'urn:cts:greekLit:tlg0062.tlg067'
p4994
aS'urn:cts:greekLit:tlg0062.tlg055'
p4995
aS'urn:cts:greekLit:tlg0062.tlg026'
p4996
aS'urn:cts:greekLit:tlg0062.tlg005'
p4997
aS'urn:cts:greekLit:tlg0062.tlg039'
p4998
aS'urn:cts:greekLit:tlg0062.tlg027'
p4999
aS'urn:cts:greekLit:tlg0062.tlg042'
p5000
aS'urn:cts:greekLit:tlg0062.tlg056'
p5001
aS'urn:cts:greekLit:tlg0062.tlg061'
p5002
aS'urn:cts:greekLit:tlg0062.tlg060'
p5003
aS'urn:cts:greekLit:tlg0062.tlg025'
p5004
aS'urn:cts:greekLit:tlg0062.tlg023'
p5005
aS'urn:cts:greekLit:tlg0062.tlg040'
p5006
aS'urn:cts:greekLit:tlg0062.tlg013'
p5007
aS'urn:cts:greekLit:tlg0062.tlg010'
p5008
aS'urn:cts:greekLit:tlg0062.tlg003'
p5009
aS'urn:cts:greekLit:tlg0062.tlg059'
p5010
aS'urn:cts:greekLit:tlg0062.tlg041'
p5011
aS'urn:cts:greekLit:tlg0062.tlg022'
p5012
aS'urn:cts:greekLit:tlg0062.tlg052'
p5013
aS'urn:cts:greekLit:tlg0062.tlg044'
p5014
aS'urn:cts:greekLit:tlg0062.tlg017'
p5015
aS'urn:cts:greekLit:tlg0062.tlg065'
p5016
aS'urn:cts:greekLit:tlg0062.tlg019'
p5017
aS'urn:cts:greekLit:tlg0062.tlg066'
p5018
aS'urn:cts:greekLit:tlg0062.tlg014'
p5019
aS'urn:cts:greekLit:tlg0062.tlg020'
p5020
aS'urn:cts:greekLit:tlg0062.tlg029'
p5021
aS'urn:cts:greekLit:tlg0062.tlg037'
p5022
aS'urn:cts:greekLit:tlg0062.tlg006'
p5023
aS'urn:cts:greekLit:tlg0062.tlg001'
p5024
aS'urn:cts:greekLit:tlg0062.tlg011'
p5025
aS'urn:cts:greekLit:tlg0062.tlg062'
p5026
aS'urn:cts:greekLit:tlg0062.tlg048'
p5027
aS'urn:cts:greekLit:tlg0062.tlg038'
p5028
aS'urn:cts:greekLit:tlg0062.tlg016'
p5029
aS'urn:cts:greekLit:tlg0062.tlg024'
p5030
aS'urn:cts:greekLit:tlg0062.tlg009'
p5031
aS'urn:cts:greekLit:tlg0062.tlg018'
p5032
aS'urn:cts:greekLit:tlg0062.tlg043'
p5033
aS'urn:cts:greekLit:tlg0062.tlg028'
p5034
aS'urn:cts:greekLit:tlg0062.tlg054'
p5035
aS'urn:cts:greekLit:tlg0062.tlg045'
p5036
aS'urn:cts:greekLit:tlg0062.tlg046'
p5037
aS'urn:cts:greekLit:tlg0062.tlg031'
p5038
aS'urn:cts:greekLit:tlg0062.tlg012'
p5039
aS'urn:cts:greekLit:tlg0062.tlg035'
p5040
aS'urn:cts:greekLit:tlg0062.tlg007'
p5041
aS'urn:cts:greekLit:tlg0062.tlg068'
p5042
aS'urn:cts:cwkb:956.3282'
p5043
aS'urn:cts:greekLit:tlg0341.tlg002'
p5044
aS'urn:cts:greekLit:tlg0034.tlg001'
p5045
aS'urn:cts:greekLit:tlg0540.tlg021'
p5046
aS'urn:cts:cwkb:959.4466'
p5047
aS'urn:cts:greekLit:tlg0540.tlg011'
p5048
aS'urn:cts:greekLit:tlg0540.tlg028'
p5049
aS'urn:cts:greekLit:tlg0540.tlg027'
p5050
aS'urn:cts:greekLit:tlg0540.tlg010'
p5051
aS'urn:cts:greekLit:tlg0540.tlg015'
p5052
aS'urn:cts:greekLit:tlg0540.tlg008'
p5053
aS'urn:cts:greekLit:tlg0540.tlg019'
p5054
aS'urn:cts:greekLit:tlg0540.tlg022'
p5055
aS'urn:cts:greekLit:tlg0540.tlg003'
p5056
aS'urn:cts:greekLit:tlg0540.tlg034'
p5057
aS'urn:cts:greekLit:tlg0540.tlg018'
p5058
aS'urn:cts:greekLit:tlg0540.tlg014'
p5059
aS'urn:cts:greekLit:tlg0540.tlg032'
p5060
aS'urn:cts:greekLit:tlg0540.tlg023'
p5061
aS'urn:cts:greekLit:tlg0540.tlg004'
p5062
aS'urn:cts:greekLit:tlg0540.tlg031'
p5063
aS'urn:cts:greekLit:tlg0540.tlg029'
p5064
aS'urn:cts:greekLit:tlg0540.tlg026'
p5065
aS'urn:cts:greekLit:tlg0540.tlg016'
p5066
aS'urn:cts:greekLit:tlg0540.tlg020'
p5067
aS'urn:cts:greekLit:tlg0540.tlg024'
p5068
aS'urn:cts:greekLit:tlg0540.tlg007'
p5069
aS'urn:cts:greekLit:tlg0540.tlg001'
p5070
aS'urn:cts:greekLit:tlg0540.tlg006'
p5071
aS'urn:cts:greekLit:tlg0540.tlg030'
p5072
aS'urn:cts:greekLit:tlg0540.tlg012'
p5073
aS'urn:cts:greekLit:tlg0540.tlg017'
p5074
aS'urn:cts:greekLit:tlg0540.tlg005'
p5075
aS'urn:cts:greekLit:tlg0540.tlg009'
p5076
aS'urn:cts:greekLit:tlg0540.tlg033'
p5077
aS'urn:cts:greekLit:tlg0540.tlg002'
p5078
aS'urn:cts:greekLit:tlg0540.tlg025'
p5079
aS'urn:cts:greekLit:tlg0540.tlg013'
p5080
aS'urn:cts:cwkb:960.3308'
p5081
aS'urn:cts:cwkb:961.3309'
p5082
aS'urn:cts:cwkb:962.3310'
p5083
aS'urn:cts:cwkb:963.3311'
p5084
aS'urn:cts:cwkb:964.3312'
p5085
aS'urn:cts:cwkb:965.3313'
p5086
aS'urn:cts:cwkb:966.3316'
p5087
aS'urn:cts:cwkb:966.3314'
p5088
aS'urn:cts:cwkb:966.9168'
p5089
aS'urn:cts:cwkb:967.3318'
p5090
aS'urn:cts:cwkb:967.3319'
p5091
aS'urn:cts:cwkb:967.3317'
p5092
aS'urn:cts:cwkb:968.3320'
p5093
aS'urn:cts:cwkb:970.3324'
p5094
aS'urn:cts:cwkb:971.3335'
p5095
aS'urn:cts:cwkb:971.3328'
p5096
aS'urn:cts:cwkb:971.3327'
p5097
aS'urn:cts:cwkb:971.3325'
p5098
aS'urn:cts:cwkb:971.3334'
p5099
aS'urn:cts:cwkb:971.3329'
p5100
aS'urn:cts:cwkb:971.3333'
p5101
aS'urn:cts:cwkb:971.3326'
p5102
aS'urn:cts:cwkb:971.3330'
p5103
aS'urn:cts:cwkb:971.3332'
p5104
aS'urn:cts:cwkb:971.3331'
p5105
aS'urn:cts:cwkb:972.3336'
p5106
aS'urn:cts:cwkb:972.3337'
p5107
aS'urn:cts:cwkb:973.3338'
p5108
aS'urn:cts:cwkb:974.3340'
p5109
aS'urn:cts:cwkb:974.3339'
p5110
aS'urn:cts:cwkb:975.3341'
p5111
aS'urn:cts:cwkb:976.3342'
p5112
aS'urn:cts:cwkb:977.3343'
p5113
aS'urn:cts:cwkb:978.3344'
p5114
aS'urn:cts:cwkb:979.3345'
p5115
aS'urn:cts:cwkb:980.8002'
p5116
aS'urn:cts:cwkb:980.3346'
p5117
aS'urn:cts:cwkb:981.3384'
p5118
aS'urn:cts:cwkb:981.3381'
p5119
aS'urn:cts:cwkb:981.3358'
p5120
aS'urn:cts:cwkb:981.3373'
p5121
aS'urn:cts:cwkb:981.3380'
p5122
aS'urn:cts:cwkb:981.3371'
p5123
aS'urn:cts:cwkb:981.3347'
p5124
aS'urn:cts:cwkb:981.3362'
p5125
aS'urn:cts:cwkb:981.3369'
p5126
aS'urn:cts:cwkb:981.3355'
p5127
aS'urn:cts:cwkb:981.3370'
p5128
aS'urn:cts:cwkb:981.3365'
p5129
aS'urn:cts:cwkb:981.3383'
p5130
aS'urn:cts:cwkb:981.3368'
p5131
aS'urn:cts:cwkb:981.3366'
p5132
aS'urn:cts:cwkb:981.3372'
p5133
aS'urn:cts:cwkb:981.3363'
p5134
aS'urn:cts:cwkb:981.3354'
p5135
aS'urn:cts:cwkb:981.3364'
p5136
aS'urn:cts:cwkb:981.3385'
p5137
aS'urn:cts:cwkb:981.3367'
p5138
aS'urn:cts:cwkb:981.3382'
p5139
aS'urn:cts:cwkb:981.3349'
p5140
aS'urn:cts:cwkb:981.3379'
p5141
aS'urn:cts:cwkb:981.3377'
p5142
aS'urn:cts:cwkb:981.3386'
p5143
aS'urn:cts:cwkb:981.3357'
p5144
aS'urn:cts:cwkb:981.3375'
p5145
aS'urn:cts:cwkb:981.3360'
p5146
aS'urn:cts:cwkb:981.3350'
p5147
aS'urn:cts:cwkb:981.3374'
p5148
aS'urn:cts:cwkb:981.3353'
p5149
aS'urn:cts:cwkb:981.3348'
p5150
aS'urn:cts:cwkb:981.3356'
p5151
aS'urn:cts:cwkb:981.3361'
p5152
aS'urn:cts:cwkb:981.3351'
p5153
aS'urn:cts:cwkb:981.3378'
p5154
aS'urn:cts:cwkb:981.4467'
p5155
aS'urn:cts:cwkb:981.3376'
p5156
aS'urn:cts:cwkb:981.3352'
p5157
aS'urn:cts:cwkb:981.3359'
p5158
aS'urn:cts:cwkb:982.3387'
p5159
aS'urn:cts:cwkb:983.3388'
p5160
aS'urn:cts:cwkb:984.3389'
p5161
aS'urn:cts:cwkb:985.3390'
p5162
aS'urn:cts:cwkb:985.9494'
p5163
aS'urn:cts:cwkb:986.3391'
p5164
aS'urn:cts:cwkb:986.9575'
p5165
aS'urn:cts:cwkb:987.8134'
p5166
aS'urn:cts:cwkb:987.3392'
p5167
aS'urn:cts:cwkb:988.3393'
p5168
aS'urn:cts:cwkb:989.3394'
p5169
aS'urn:cts:cwkb:990.3395'
p5170
aS'urn:cts:cwkb:991.3396'
p5171
aS'urn:cts:cwkb:992.3397'
p5172
aS'urn:cts:greekLit:tlg0035.tlg002'
p5173
aS'urn:cts:greekLit:tlg0035.tlg005'
p5174
aS'urn:cts:cwkb:993.3398'
p5175
aS'urn:cts:greekLit:tlg0035.tlg004'
p5176
aS'urn:cts:greekLit:tlg0035.tlg001'
p5177
aS'urn:cts:greekLit:tlg0035.tlg003'
p5178
aS'urn:cts:cwkb:994.3403'
p5179
aS'urn:cts:cwkb:995.3404'
p5180
aS'urn:cts:cwkb:996.3414'
p5181
aS'urn:cts:cwkb:996.3416'
p5182
aS'urn:cts:cwkb:996.3406'
p5183
aS'urn:cts:cwkb:996.3413'
p5184
aS'urn:cts:cwkb:996.3407'
p5185
aS'urn:cts:cwkb:996.3410'
p5186
aS'urn:cts:cwkb:996.3408'
p5187
aS'urn:cts:cwkb:996.3411'
p5188
aS'urn:cts:cwkb:996.3412'
p5189
aS'urn:cts:cwkb:996.3415'
p5190
aS'urn:cts:cwkb:996.3417'
p5191
aS'urn:cts:cwkb:996.3409'
p5192
aS'urn:cts:cwkb:996.3405'
p5193
aS'urn:cts:cwkb:997.3418'
p5194
aS'urn:cts:cwkb:998.9195'
p5195
aS'urn:cts:cwkb:998.3419'
p5196
aS'urn:cts:cwkb:998.3421'
p5197
aS'urn:cts:cwkb:998.3420'
p5198
aS'urn:cts:cwkb:999.3422'
p5199
a.